
kyu:     file format elf32-littlearm


Disassembly of section .text:

80300000 <uboot_startup>:
80300000:	eb000158 	bl	80300568 <kern_startup>
80300004:	e12fff1e 	bx	lr

80300008 <get_sp>:
80300008:	e28d0000 	add	r0, sp, #0
8030000c:	e12fff1e 	bx	lr

80300010 <get_pc>:
80300010:	e28f0000 	add	r0, pc, #0
80300014:	e12fff1e 	bx	lr

80300018 <get_cpsr>:
80300018:	e10f0000 	mrs	r0, CPSR
8030001c:	e12fff1e 	bx	lr

80300020 <get_vbar>:
80300020:	ee1c0f10 	mrc	15, 0, r0, cr12, cr0, {0}
80300024:	e12fff1e 	bx	lr

80300028 <set_vbar>:
80300028:	ee0c0f10 	mcr	15, 0, r0, cr12, cr0, {0}
8030002c:	e12fff1e 	bx	lr

80300030 <get_sctrl>:
80300030:	ee110f10 	mrc	15, 0, r0, cr1, cr0, {0}
80300034:	e12fff1e 	bx	lr

80300038 <enable_irq>:
80300038:	e10f0000 	mrs	r0, CPSR
8030003c:	e3c00080 	bic	r0, r0, #128	; 0x80
80300040:	e121f000 	msr	CPSR_c, r0
80300044:	e12fff1e 	bx	lr

80300048 <enable_fiq>:
80300048:	e10f0000 	mrs	r0, CPSR
8030004c:	e3c00040 	bic	r0, r0, #64	; 0x40
80300050:	e121f000 	msr	CPSR_c, r0
80300054:	e12fff1e 	bx	lr

80300058 <cpu_enter>:
80300058:	e10f0000 	mrs	r0, CPSR
8030005c:	e38000c0 	orr	r0, r0, #192	; 0xc0
80300060:	e121f000 	msr	CPSR_c, r0
80300064:	e12fff1e 	bx	lr

80300068 <cpu_leave>:
80300068:	e10f0000 	mrs	r0, CPSR
8030006c:	e3c000c0 	bic	r0, r0, #192	; 0xc0
80300070:	e121f000 	msr	CPSR_c, r0
80300074:	e12fff1e 	bx	lr

80300078 <resume_c>:
80300078:	e890e001 	ldm	r0, {r0, sp, lr, pc}

8030007c <resume_i>:
8030007c:	e12fff1e 	bx	lr

80300080 <resume_j>:
80300080:	e890ffff 	ldm	r0, {r0, r1, r2, r3, r4, r5, r6, r7, r8, r9, sl, fp, ip, sp, lr, pc}

80300084 <save_j>:
80300084:	e8807fff 	stm	r0, {r0, r1, r2, r3, r4, r5, r6, r7, r8, r9, sl, fp, ip, sp, lr}
80300088:	e3a00001 	mov	r0, #1
8030008c:	e580e03c 	str	lr, [r0, #60]	; 0x3c
80300090:	e3a00000 	mov	r0, #0
80300094:	e12fff1e 	bx	lr

80300098 <interrupt_init>:
80300098:	e92d4800 	push	{fp, lr}
8030009c:	e28db004 	add	fp, sp, #4
803000a0:	e24dd008 	sub	sp, sp, #8
803000a4:	e3a0349d 	mov	r3, #-1660944384	; 0x9d000000
803000a8:	e50b3008 	str	r3, [fp, #-8]
803000ac:	e51b3008 	ldr	r3, [fp, #-8]
803000b0:	e2432004 	sub	r2, r3, #4
803000b4:	e3053724 	movw	r3, #22308	; 0x5724
803000b8:	e3483030 	movt	r3, #32816	; 0x8030
803000bc:	e5832000 	str	r2, [r3]
803000c0:	e51b3008 	ldr	r3, [fp, #-8]
803000c4:	e2832008 	add	r2, r3, #8
803000c8:	e3053720 	movw	r3, #22304	; 0x5720
803000cc:	e3483030 	movt	r3, #32816	; 0x8030
803000d0:	e5832000 	str	r2, [r3]
803000d4:	e3053724 	movw	r3, #22308	; 0x5724
803000d8:	e3483030 	movt	r3, #32816	; 0x8030
803000dc:	e5933000 	ldr	r3, [r3]
803000e0:	e2432a01 	sub	r2, r3, #4096	; 0x1000
803000e4:	e3053728 	movw	r3, #22312	; 0x5728
803000e8:	e3483030 	movt	r3, #32816	; 0x8030
803000ec:	e5832000 	str	r2, [r3]
803000f0:	e3083200 	movw	r3, #33280	; 0x8200
803000f4:	e3483031 	movt	r3, #32817	; 0x8031
803000f8:	e3a02000 	mov	r2, #0
803000fc:	e5832000 	str	r2, [r3]
80300100:	e30506e0 	movw	r0, #22240	; 0x56e0
80300104:	e3480030 	movt	r0, #32816	; 0x8030
80300108:	ebffffc6 	bl	80300028 <set_vbar>
8030010c:	e24bd004 	sub	sp, fp, #4
80300110:	e8bd8800 	pop	{fp, pc}

80300114 <interrupt_test>:
80300114:	e92d4800 	push	{fp, lr}
80300118:	e28db004 	add	fp, sp, #4
8030011c:	e24dd008 	sub	sp, sp, #8
80300120:	e30831fc 	movw	r3, #33276	; 0x81fc
80300124:	e3483031 	movt	r3, #32817	; 0x8031
80300128:	e3a02009 	mov	r2, #9
8030012c:	e5832000 	str	r2, [r3]
80300130:	e3a03005 	mov	r3, #5
80300134:	e50b3008 	str	r3, [fp, #-8]
80300138:	ea00000d 	b	80300174 <interrupt_test+0x60>
8030013c:	e30831fc 	movw	r3, #33276	; 0x81fc
80300140:	e3483031 	movt	r3, #32817	; 0x8031
80300144:	e5933000 	ldr	r3, [r3]
80300148:	e1a00003 	mov	r0, r3
8030014c:	e51b1008 	ldr	r1, [fp, #-8]
80300150:	eb0014ca 	bl	80305480 <__aeabi_idiv>
80300154:	e1a03000 	mov	r3, r0
80300158:	e1a02003 	mov	r2, r3
8030015c:	e30831fc 	movw	r3, #33276	; 0x81fc
80300160:	e3483031 	movt	r3, #32817	; 0x8031
80300164:	e5832000 	str	r2, [r3]
80300168:	e51b3008 	ldr	r3, [fp, #-8]
8030016c:	e2433001 	sub	r3, r3, #1
80300170:	e50b3008 	str	r3, [fp, #-8]
80300174:	e51b3008 	ldr	r3, [fp, #-8]
80300178:	e3730009 	cmn	r3, #9
8030017c:	aaffffee 	bge	8030013c <interrupt_test+0x28>
80300180:	e24bd004 	sub	sp, fp, #4
80300184:	e8bd8800 	pop	{fp, pc}

80300188 <bad_mode>:
80300188:	e52db004 	push	{fp}		; (str fp, [sp, #-4]!)
8030018c:	e28db000 	add	fp, sp, #0
80300190:	e24bd000 	sub	sp, fp, #0
80300194:	e49db004 	pop	{fp}		; (ldr fp, [sp], #4)
80300198:	e12fff1e 	bx	lr

8030019c <show_regs>:
8030019c:	e92d4800 	push	{fp, lr}
803001a0:	e28db004 	add	fp, sp, #4
803001a4:	e24dd098 	sub	sp, sp, #152	; 0x98
803001a8:	e50b0090 	str	r0, [fp, #-144]	; 0xffffff70
803001ac:	e3053bc8 	movw	r3, #23496	; 0x5bc8
803001b0:	e3483030 	movt	r3, #32816	; 0x8030
803001b4:	e24b2088 	sub	r2, fp, #136	; 0x88
803001b8:	e1a01003 	mov	r1, r3
803001bc:	e3a03080 	mov	r3, #128	; 0x80
803001c0:	e1a00002 	mov	r0, r2
803001c4:	e1a02003 	mov	r2, r3
803001c8:	eb0011d5 	bl	80304924 <memcpy>
803001cc:	e51b3090 	ldr	r3, [fp, #-144]	; 0xffffff70
803001d0:	e5933040 	ldr	r3, [r3, #64]	; 0x40
803001d4:	e203320f 	and	r3, r3, #-268435456	; 0xf0000000
803001d8:	e50b3008 	str	r3, [fp, #-8]
803001dc:	e51b3090 	ldr	r3, [fp, #-144]	; 0xffffff70
803001e0:	e593103c 	ldr	r1, [r3, #60]	; 0x3c
803001e4:	e51b3090 	ldr	r3, [fp, #-144]	; 0xffffff70
803001e8:	e593e038 	ldr	lr, [r3, #56]	; 0x38
803001ec:	e51b3090 	ldr	r3, [fp, #-144]	; 0xffffff70
803001f0:	e593c034 	ldr	ip, [r3, #52]	; 0x34
803001f4:	e51b3090 	ldr	r3, [fp, #-144]	; 0xffffff70
803001f8:	e5932030 	ldr	r2, [r3, #48]	; 0x30
803001fc:	e51b3090 	ldr	r3, [fp, #-144]	; 0xffffff70
80300200:	e593302c 	ldr	r3, [r3, #44]	; 0x2c
80300204:	e58d2000 	str	r2, [sp]
80300208:	e58d3004 	str	r3, [sp, #4]
8030020c:	e30509c0 	movw	r0, #22976	; 0x59c0
80300210:	e3480030 	movt	r0, #32816	; 0x8030
80300214:	e1a0200e 	mov	r2, lr
80300218:	e1a0300c 	mov	r3, ip
8030021c:	eb001063 	bl	803043b0 <printf>
80300220:	e51b3090 	ldr	r3, [fp, #-144]	; 0xffffff70
80300224:	e5931028 	ldr	r1, [r3, #40]	; 0x28
80300228:	e51b3090 	ldr	r3, [fp, #-144]	; 0xffffff70
8030022c:	e5932024 	ldr	r2, [r3, #36]	; 0x24
80300230:	e51b3090 	ldr	r3, [fp, #-144]	; 0xffffff70
80300234:	e5933020 	ldr	r3, [r3, #32]
80300238:	e3050a08 	movw	r0, #23048	; 0x5a08
8030023c:	e3480030 	movt	r0, #32816	; 0x8030
80300240:	eb00105a 	bl	803043b0 <printf>
80300244:	e51b3090 	ldr	r3, [fp, #-144]	; 0xffffff70
80300248:	e593101c 	ldr	r1, [r3, #28]
8030024c:	e51b3090 	ldr	r3, [fp, #-144]	; 0xffffff70
80300250:	e5932018 	ldr	r2, [r3, #24]
80300254:	e51b3090 	ldr	r3, [fp, #-144]	; 0xffffff70
80300258:	e593c014 	ldr	ip, [r3, #20]
8030025c:	e51b3090 	ldr	r3, [fp, #-144]	; 0xffffff70
80300260:	e5933010 	ldr	r3, [r3, #16]
80300264:	e58d3000 	str	r3, [sp]
80300268:	e3050a2c 	movw	r0, #23084	; 0x5a2c
8030026c:	e3480030 	movt	r0, #32816	; 0x8030
80300270:	e1a0300c 	mov	r3, ip
80300274:	eb00104d 	bl	803043b0 <printf>
80300278:	e51b3090 	ldr	r3, [fp, #-144]	; 0xffffff70
8030027c:	e593100c 	ldr	r1, [r3, #12]
80300280:	e51b3090 	ldr	r3, [fp, #-144]	; 0xffffff70
80300284:	e5932008 	ldr	r2, [r3, #8]
80300288:	e51b3090 	ldr	r3, [fp, #-144]	; 0xffffff70
8030028c:	e593c004 	ldr	ip, [r3, #4]
80300290:	e51b3090 	ldr	r3, [fp, #-144]	; 0xffffff70
80300294:	e5933000 	ldr	r3, [r3]
80300298:	e58d3000 	str	r3, [sp]
8030029c:	e3050a5c 	movw	r0, #23132	; 0x5a5c
803002a0:	e3480030 	movt	r0, #32816	; 0x8030
803002a4:	e1a0300c 	mov	r3, ip
803002a8:	eb001040 	bl	803043b0 <printf>
803002ac:	e51b3008 	ldr	r3, [fp, #-8]
803002b0:	e3530000 	cmp	r3, #0
803002b4:	aa000001 	bge	803002c0 <show_regs+0x124>
803002b8:	e3a0104e 	mov	r1, #78	; 0x4e
803002bc:	ea000000 	b	803002c4 <show_regs+0x128>
803002c0:	e3a0106e 	mov	r1, #110	; 0x6e
803002c4:	e51b3008 	ldr	r3, [fp, #-8]
803002c8:	e2033101 	and	r3, r3, #1073741824	; 0x40000000
803002cc:	e3530000 	cmp	r3, #0
803002d0:	0a000001 	beq	803002dc <show_regs+0x140>
803002d4:	e3a0205a 	mov	r2, #90	; 0x5a
803002d8:	ea000000 	b	803002e0 <show_regs+0x144>
803002dc:	e3a0207a 	mov	r2, #122	; 0x7a
803002e0:	e51b3008 	ldr	r3, [fp, #-8]
803002e4:	e2033202 	and	r3, r3, #536870912	; 0x20000000
803002e8:	e3530000 	cmp	r3, #0
803002ec:	0a000001 	beq	803002f8 <show_regs+0x15c>
803002f0:	e3a0c043 	mov	ip, #67	; 0x43
803002f4:	ea000000 	b	803002fc <show_regs+0x160>
803002f8:	e3a0c063 	mov	ip, #99	; 0x63
803002fc:	e51b3008 	ldr	r3, [fp, #-8]
80300300:	e2033201 	and	r3, r3, #268435456	; 0x10000000
80300304:	e3530000 	cmp	r3, #0
80300308:	0a000001 	beq	80300314 <show_regs+0x178>
8030030c:	e3a03056 	mov	r3, #86	; 0x56
80300310:	ea000000 	b	80300318 <show_regs+0x17c>
80300314:	e3a03076 	mov	r3, #118	; 0x76
80300318:	e58d3000 	str	r3, [sp]
8030031c:	e3050a8c 	movw	r0, #23180	; 0x5a8c
80300320:	e3480030 	movt	r0, #32816	; 0x8030
80300324:	e1a0300c 	mov	r3, ip
80300328:	eb001020 	bl	803043b0 <printf>
8030032c:	e51b3090 	ldr	r3, [fp, #-144]	; 0xffffff70
80300330:	e5933040 	ldr	r3, [r3, #64]	; 0x40
80300334:	e2033080 	and	r3, r3, #128	; 0x80
80300338:	e3530000 	cmp	r3, #0
8030033c:	1a000002 	bne	8030034c <show_regs+0x1b0>
80300340:	e3052a9c 	movw	r2, #23196	; 0x5a9c
80300344:	e3482030 	movt	r2, #32816	; 0x8030
80300348:	ea000001 	b	80300354 <show_regs+0x1b8>
8030034c:	e3052aa0 	movw	r2, #23200	; 0x5aa0
80300350:	e3482030 	movt	r2, #32816	; 0x8030
80300354:	e51b3090 	ldr	r3, [fp, #-144]	; 0xffffff70
80300358:	e5933040 	ldr	r3, [r3, #64]	; 0x40
8030035c:	e2033040 	and	r3, r3, #64	; 0x40
80300360:	e3530000 	cmp	r3, #0
80300364:	1a000002 	bne	80300374 <show_regs+0x1d8>
80300368:	e3053a9c 	movw	r3, #23196	; 0x5a9c
8030036c:	e3483030 	movt	r3, #32816	; 0x8030
80300370:	ea000001 	b	8030037c <show_regs+0x1e0>
80300374:	e3053aa0 	movw	r3, #23200	; 0x5aa0
80300378:	e3483030 	movt	r3, #32816	; 0x8030
8030037c:	e51b1090 	ldr	r1, [fp, #-144]	; 0xffffff70
80300380:	e5911040 	ldr	r1, [r1, #64]	; 0x40
80300384:	e201101f 	and	r1, r1, #31
80300388:	e1a01101 	lsl	r1, r1, #2
8030038c:	e24b0004 	sub	r0, fp, #4
80300390:	e0801001 	add	r1, r0, r1
80300394:	e511c084 	ldr	ip, [r1, #-132]	; 0xffffff7c
80300398:	e3051ac4 	movw	r1, #23236	; 0x5ac4
8030039c:	e3481030 	movt	r1, #32816	; 0x8030
803003a0:	e58d1000 	str	r1, [sp]
803003a4:	e3050aa4 	movw	r0, #23204	; 0x5aa4
803003a8:	e3480030 	movt	r0, #32816	; 0x8030
803003ac:	e1a01002 	mov	r1, r2
803003b0:	e1a02003 	mov	r2, r3
803003b4:	e1a0300c 	mov	r3, ip
803003b8:	eb000ffc 	bl	803043b0 <printf>
803003bc:	e24bd004 	sub	sp, fp, #4
803003c0:	e8bd8800 	pop	{fp, pc}

803003c4 <do_undefined_instruction>:
803003c4:	e92d4800 	push	{fp, lr}
803003c8:	e28db004 	add	fp, sp, #4
803003cc:	e24dd008 	sub	sp, sp, #8
803003d0:	e50b0008 	str	r0, [fp, #-8]
803003d4:	e3050c48 	movw	r0, #23624	; 0x5c48
803003d8:	e3480030 	movt	r0, #32816	; 0x8030
803003dc:	eb000ff3 	bl	803043b0 <printf>
803003e0:	e51b0008 	ldr	r0, [fp, #-8]
803003e4:	ebffff6c 	bl	8030019c <show_regs>
803003e8:	ebffff66 	bl	80300188 <bad_mode>
803003ec:	e24bd004 	sub	sp, fp, #4
803003f0:	e8bd8800 	pop	{fp, pc}

803003f4 <do_software_interrupt>:
803003f4:	e92d4800 	push	{fp, lr}
803003f8:	e28db004 	add	fp, sp, #4
803003fc:	e24dd008 	sub	sp, sp, #8
80300400:	e50b0008 	str	r0, [fp, #-8]
80300404:	e3050c60 	movw	r0, #23648	; 0x5c60
80300408:	e3480030 	movt	r0, #32816	; 0x8030
8030040c:	eb000fe7 	bl	803043b0 <printf>
80300410:	e51b0008 	ldr	r0, [fp, #-8]
80300414:	ebffff60 	bl	8030019c <show_regs>
80300418:	ebffff5a 	bl	80300188 <bad_mode>
8030041c:	e24bd004 	sub	sp, fp, #4
80300420:	e8bd8800 	pop	{fp, pc}

80300424 <do_prefetch_abort>:
80300424:	e92d4800 	push	{fp, lr}
80300428:	e28db004 	add	fp, sp, #4
8030042c:	e24dd008 	sub	sp, sp, #8
80300430:	e50b0008 	str	r0, [fp, #-8]
80300434:	e3050c74 	movw	r0, #23668	; 0x5c74
80300438:	e3480030 	movt	r0, #32816	; 0x8030
8030043c:	eb000fdb 	bl	803043b0 <printf>
80300440:	e51b0008 	ldr	r0, [fp, #-8]
80300444:	ebffff54 	bl	8030019c <show_regs>
80300448:	ebffff4e 	bl	80300188 <bad_mode>
8030044c:	e24bd004 	sub	sp, fp, #4
80300450:	e8bd8800 	pop	{fp, pc}

80300454 <do_data_abort>:
80300454:	e92d4800 	push	{fp, lr}
80300458:	e28db004 	add	fp, sp, #4
8030045c:	e24dd008 	sub	sp, sp, #8
80300460:	e50b0008 	str	r0, [fp, #-8]
80300464:	e3050c84 	movw	r0, #23684	; 0x5c84
80300468:	e3480030 	movt	r0, #32816	; 0x8030
8030046c:	eb000fcf 	bl	803043b0 <printf>
80300470:	e51b0008 	ldr	r0, [fp, #-8]
80300474:	ebffff48 	bl	8030019c <show_regs>
80300478:	ebffff42 	bl	80300188 <bad_mode>
8030047c:	e24bd004 	sub	sp, fp, #4
80300480:	e8bd8800 	pop	{fp, pc}

80300484 <do_not_used>:
80300484:	e92d4800 	push	{fp, lr}
80300488:	e28db004 	add	fp, sp, #4
8030048c:	e24dd008 	sub	sp, sp, #8
80300490:	e50b0008 	str	r0, [fp, #-8]
80300494:	e3050c90 	movw	r0, #23696	; 0x5c90
80300498:	e3480030 	movt	r0, #32816	; 0x8030
8030049c:	eb000fc3 	bl	803043b0 <printf>
803004a0:	e51b0008 	ldr	r0, [fp, #-8]
803004a4:	ebffff3c 	bl	8030019c <show_regs>
803004a8:	ebffff36 	bl	80300188 <bad_mode>
803004ac:	e24bd004 	sub	sp, fp, #4
803004b0:	e8bd8800 	pop	{fp, pc}

803004b4 <do_fiq>:
803004b4:	e92d4800 	push	{fp, lr}
803004b8:	e28db004 	add	fp, sp, #4
803004bc:	e24dd008 	sub	sp, sp, #8
803004c0:	e50b0008 	str	r0, [fp, #-8]
803004c4:	e3050c9c 	movw	r0, #23708	; 0x5c9c
803004c8:	e3480030 	movt	r0, #32816	; 0x8030
803004cc:	eb000fb7 	bl	803043b0 <printf>
803004d0:	e51b0008 	ldr	r0, [fp, #-8]
803004d4:	ebffff30 	bl	8030019c <show_regs>
803004d8:	ebffff2a 	bl	80300188 <bad_mode>
803004dc:	e24bd004 	sub	sp, fp, #4
803004e0:	e8bd8800 	pop	{fp, pc}

803004e4 <do_irq>:
803004e4:	e92d4800 	push	{fp, lr}
803004e8:	e28db004 	add	fp, sp, #4
803004ec:	e24dd010 	sub	sp, sp, #16
803004f0:	e50b0010 	str	r0, [fp, #-16]
803004f4:	eb00092f 	bl	803029b8 <intcon_irqwho>
803004f8:	e50b0008 	str	r0, [fp, #-8]
803004fc:	e51b3008 	ldr	r3, [fp, #-8]
80300500:	e3530042 	cmp	r3, #66	; 0x42
80300504:	1a000008 	bne	8030052c <do_irq+0x48>
80300508:	eb0009bf 	bl	80302c0c <timer_irqack>
8030050c:	e3083200 	movw	r3, #33280	; 0x8200
80300510:	e3483031 	movt	r3, #32817	; 0x8031
80300514:	e5933000 	ldr	r3, [r3]
80300518:	e2832001 	add	r2, r3, #1
8030051c:	e3083200 	movw	r3, #33280	; 0x8200
80300520:	e3483031 	movt	r3, #32817	; 0x8031
80300524:	e5832000 	str	r2, [r3]
80300528:	ea00000c 	b	80300560 <do_irq+0x7c>
8030052c:	e51b3008 	ldr	r3, [fp, #-8]
80300530:	e3530048 	cmp	r3, #72	; 0x48
80300534:	1a000002 	bne	80300544 <do_irq+0x60>
80300538:	eb000b49 	bl	80303264 <serial_irqack>
8030053c:	eb000b4d 	bl	80303278 <serial_int>
80300540:	ea000006 	b	80300560 <do_irq+0x7c>
80300544:	e3050cb4 	movw	r0, #23732	; 0x5cb4
80300548:	e3480030 	movt	r0, #32816	; 0x8030
8030054c:	e51b1008 	ldr	r1, [fp, #-8]
80300550:	eb000f96 	bl	803043b0 <printf>
80300554:	e51b0010 	ldr	r0, [fp, #-16]
80300558:	ebffff0f 	bl	8030019c <show_regs>
8030055c:	ebffff09 	bl	80300188 <bad_mode>
80300560:	e24bd004 	sub	sp, fp, #4
80300564:	e8bd8800 	pop	{fp, pc}

80300568 <kern_startup>:
80300568:	e92d4800 	push	{fp, lr}
8030056c:	e28db004 	add	fp, sp, #4
80300570:	eb000ed6 	bl	803040d0 <console_initialize>
80300574:	e3063424 	movw	r3, #25636	; 0x6424
80300578:	e3483031 	movt	r3, #32817	; 0x8031
8030057c:	e5933000 	ldr	r3, [r3]
80300580:	e3050ccc 	movw	r0, #23756	; 0x5ccc
80300584:	e3480030 	movt	r0, #32816	; 0x8030
80300588:	e1a01003 	mov	r1, r3
8030058c:	eb000f87 	bl	803043b0 <printf>
80300590:	eb0000b0 	bl	80300858 <thr_init>
80300594:	e3050ce0 	movw	r0, #23776	; 0x5ce0
80300598:	e3480030 	movt	r0, #32816	; 0x8030
8030059c:	eb000f83 	bl	803043b0 <printf>
803005a0:	eb000105 	bl	803009bc <thr_sched>
803005a4:	e3050cf0 	movw	r0, #23792	; 0x5cf0
803005a8:	e3480030 	movt	r0, #32816	; 0x8030
803005ac:	eb000f8f 	bl	803043f0 <panic>
803005b0:	e8bd8800 	pop	{fp, pc}

803005b4 <sys_init>:
803005b4:	e92d4800 	push	{fp, lr}
803005b8:	e28db004 	add	fp, sp, #4
803005bc:	e24dd010 	sub	sp, sp, #16
803005c0:	e50b0008 	str	r0, [fp, #-8]
803005c4:	ebfffea3 	bl	80300058 <cpu_enter>
803005c8:	e3050cfc 	movw	r0, #23804	; 0x5cfc
803005cc:	e3480030 	movt	r0, #32816	; 0x8030
803005d0:	eb000f76 	bl	803043b0 <printf>
803005d4:	ebfffe8b 	bl	80300008 <get_sp>
803005d8:	e1a03000 	mov	r3, r0
803005dc:	e3050d18 	movw	r0, #23832	; 0x5d18
803005e0:	e3480030 	movt	r0, #32816	; 0x8030
803005e4:	e1a01003 	mov	r1, r3
803005e8:	eb000f70 	bl	803043b0 <printf>
803005ec:	eb000ebd 	bl	803040e8 <console_init>
803005f0:	eb00001b 	bl	80300664 <hardware_init>
803005f4:	ebfffe9b 	bl	80300068 <cpu_leave>
803005f8:	e3063424 	movw	r3, #25636	; 0x6424
803005fc:	e3483031 	movt	r3, #32817	; 0x8031
80300600:	e5933000 	ldr	r3, [r3]
80300604:	e3050d28 	movw	r0, #23848	; 0x5d28
80300608:	e3480030 	movt	r0, #32816	; 0x8030
8030060c:	e1a01003 	mov	r1, r3
80300610:	eb000f66 	bl	803043b0 <printf>
80300614:	e3a03000 	mov	r3, #0
80300618:	e58d3000 	str	r3, [sp]
8030061c:	e3050d38 	movw	r0, #23864	; 0x5d38
80300620:	e3480030 	movt	r0, #32816	; 0x8030
80300624:	e3001640 	movw	r1, #1600	; 0x640
80300628:	e3481030 	movt	r1, #32816	; 0x8030
8030062c:	e3a02000 	mov	r2, #0
80300630:	e3a0300a 	mov	r3, #10
80300634:	eb0002a2 	bl	803010c4 <thr_new>
80300638:	e24bd004 	sub	sp, fp, #4
8030063c:	e8bd8800 	pop	{fp, pc}

80300640 <user_init>:
80300640:	e92d4800 	push	{fp, lr}
80300644:	e28db004 	add	fp, sp, #4
80300648:	e24dd008 	sub	sp, sp, #8
8030064c:	e50b0008 	str	r0, [fp, #-8]
80300650:	e3050d40 	movw	r0, #23872	; 0x5d40
80300654:	e3480030 	movt	r0, #32816	; 0x8030
80300658:	eb000f54 	bl	803043b0 <printf>
8030065c:	e24bd004 	sub	sp, fp, #4
80300660:	e8bd8800 	pop	{fp, pc}

80300664 <hardware_init>:
80300664:	e92d4800 	push	{fp, lr}
80300668:	e28db004 	add	fp, sp, #4
8030066c:	eb000004 	bl	80300684 <trap_init>
80300670:	e3a00cc2 	mov	r0, #49664	; 0xc200
80300674:	e3400001 	movt	r0, #1
80300678:	eb000a51 	bl	80302fc4 <serial_init>
8030067c:	eb00096f 	bl	80302c40 <wdt_disable>
80300680:	e8bd8800 	pop	{fp, pc}

80300684 <trap_init>:
80300684:	e52db004 	push	{fp}		; (str fp, [sp, #-4]!)
80300688:	e28db000 	add	fp, sp, #0
8030068c:	e3083204 	movw	r3, #33284	; 0x8204
80300690:	e3483031 	movt	r3, #32817	; 0x8031
80300694:	e3a02000 	mov	r2, #0
80300698:	e5832000 	str	r2, [r3]
8030069c:	e3083208 	movw	r3, #33288	; 0x8208
803006a0:	e3483031 	movt	r3, #32817	; 0x8031
803006a4:	e3a02000 	mov	r2, #0
803006a8:	e5832000 	str	r2, [r3]
803006ac:	e24bd000 	sub	sp, fp, #0
803006b0:	e49db004 	pop	{fp}		; (ldr fp, [sp], #4)
803006b4:	e12fff1e 	bx	lr

803006b8 <timer_add_wait>:
803006b8:	e52db004 	push	{fp}		; (str fp, [sp, #-4]!)
803006bc:	e28db000 	add	fp, sp, #0
803006c0:	e24dd00c 	sub	sp, sp, #12
803006c4:	e50b0008 	str	r0, [fp, #-8]
803006c8:	e50b100c 	str	r1, [fp, #-12]
803006cc:	e24bd000 	sub	sp, fp, #0
803006d0:	e49db004 	pop	{fp}		; (ldr fp, [sp], #4)
803006d4:	e12fff1e 	bx	lr

803006d8 <thr_alloc>:
803006d8:	e52db004 	push	{fp}		; (str fp, [sp, #-4]!)
803006dc:	e28db000 	add	fp, sp, #0
803006e0:	e24dd01c 	sub	sp, sp, #28
803006e4:	e50b0018 	str	r0, [fp, #-24]	; 0xffffffe8
803006e8:	e3073c64 	movw	r3, #31844	; 0x7c64
803006ec:	e3483031 	movt	r3, #32817	; 0x8031
803006f0:	e5933000 	ldr	r3, [r3]
803006f4:	e50b3008 	str	r3, [fp, #-8]
803006f8:	ea00001b 	b	8030076c <thr_alloc+0x94>
803006fc:	e51b3008 	ldr	r3, [fp, #-8]
80300700:	e5932004 	ldr	r2, [r3, #4]
80300704:	e51b3018 	ldr	r3, [fp, #-24]	; 0xffffffe8
80300708:	e1520003 	cmp	r2, r3
8030070c:	1a000011 	bne	80300758 <thr_alloc+0x80>
80300710:	e3073c64 	movw	r3, #31844	; 0x7c64
80300714:	e3483031 	movt	r3, #32817	; 0x8031
80300718:	e5933000 	ldr	r3, [r3]
8030071c:	e51b2008 	ldr	r2, [fp, #-8]
80300720:	e1520003 	cmp	r2, r3
80300724:	1a000005 	bne	80300740 <thr_alloc+0x68>
80300728:	e51b3008 	ldr	r3, [fp, #-8]
8030072c:	e5932000 	ldr	r2, [r3]
80300730:	e3073c64 	movw	r3, #31844	; 0x7c64
80300734:	e3483031 	movt	r3, #32817	; 0x8031
80300738:	e5832000 	str	r2, [r3]
8030073c:	ea000003 	b	80300750 <thr_alloc+0x78>
80300740:	e51b3008 	ldr	r3, [fp, #-8]
80300744:	e5932000 	ldr	r2, [r3]
80300748:	e51b300c 	ldr	r3, [fp, #-12]
8030074c:	e5832000 	str	r2, [r3]
80300750:	e51b3008 	ldr	r3, [fp, #-8]
80300754:	ea000024 	b	803007ec <thr_alloc+0x114>
80300758:	e51b3008 	ldr	r3, [fp, #-8]
8030075c:	e50b300c 	str	r3, [fp, #-12]
80300760:	e51b3008 	ldr	r3, [fp, #-8]
80300764:	e5933000 	ldr	r3, [r3]
80300768:	e50b3008 	str	r3, [fp, #-8]
8030076c:	e51b3008 	ldr	r3, [fp, #-8]
80300770:	e3530000 	cmp	r3, #0
80300774:	1affffe0 	bne	803006fc <thr_alloc+0x24>
80300778:	e3073c60 	movw	r3, #31840	; 0x7c60
8030077c:	e3483031 	movt	r3, #32817	; 0x8031
80300780:	e5933000 	ldr	r3, [r3]
80300784:	e51b2018 	ldr	r2, [fp, #-24]	; 0xffffffe8
80300788:	e1520003 	cmp	r2, r3
8030078c:	da000001 	ble	80300798 <thr_alloc+0xc0>
80300790:	e3a03000 	mov	r3, #0
80300794:	ea000014 	b	803007ec <thr_alloc+0x114>
80300798:	e3073c5c 	movw	r3, #31836	; 0x7c5c
8030079c:	e3483031 	movt	r3, #32817	; 0x8031
803007a0:	e5933000 	ldr	r3, [r3]
803007a4:	e50b3010 	str	r3, [fp, #-16]
803007a8:	e3073c60 	movw	r3, #31840	; 0x7c60
803007ac:	e3483031 	movt	r3, #32817	; 0x8031
803007b0:	e5932000 	ldr	r2, [r3]
803007b4:	e51b3018 	ldr	r3, [fp, #-24]	; 0xffffffe8
803007b8:	e0632002 	rsb	r2, r3, r2
803007bc:	e3073c60 	movw	r3, #31840	; 0x7c60
803007c0:	e3483031 	movt	r3, #32817	; 0x8031
803007c4:	e5832000 	str	r2, [r3]
803007c8:	e3073c5c 	movw	r3, #31836	; 0x7c5c
803007cc:	e3483031 	movt	r3, #32817	; 0x8031
803007d0:	e5932000 	ldr	r2, [r3]
803007d4:	e51b3018 	ldr	r3, [fp, #-24]	; 0xffffffe8
803007d8:	e0822003 	add	r2, r2, r3
803007dc:	e3073c5c 	movw	r3, #31836	; 0x7c5c
803007e0:	e3483031 	movt	r3, #32817	; 0x8031
803007e4:	e5832000 	str	r2, [r3]
803007e8:	e51b3010 	ldr	r3, [fp, #-16]
803007ec:	e1a00003 	mov	r0, r3
803007f0:	e24bd000 	sub	sp, fp, #0
803007f4:	e49db004 	pop	{fp}		; (ldr fp, [sp], #4)
803007f8:	e12fff1e 	bx	lr

803007fc <thr_free>:
803007fc:	e52db004 	push	{fp}		; (str fp, [sp, #-4]!)
80300800:	e28db000 	add	fp, sp, #0
80300804:	e24dd014 	sub	sp, sp, #20
80300808:	e50b0010 	str	r0, [fp, #-16]
8030080c:	e50b1014 	str	r1, [fp, #-20]	; 0xffffffec
80300810:	e51b3010 	ldr	r3, [fp, #-16]
80300814:	e50b3008 	str	r3, [fp, #-8]
80300818:	e3073c64 	movw	r3, #31844	; 0x7c64
8030081c:	e3483031 	movt	r3, #32817	; 0x8031
80300820:	e5932000 	ldr	r2, [r3]
80300824:	e51b3008 	ldr	r3, [fp, #-8]
80300828:	e5832000 	str	r2, [r3]
8030082c:	e51b3008 	ldr	r3, [fp, #-8]
80300830:	e51b2014 	ldr	r2, [fp, #-20]	; 0xffffffec
80300834:	e5832004 	str	r2, [r3, #4]
80300838:	e3073c64 	movw	r3, #31844	; 0x7c64
8030083c:	e3483031 	movt	r3, #32817	; 0x8031
80300840:	e51b2008 	ldr	r2, [fp, #-8]
80300844:	e5832000 	str	r2, [r3]
80300848:	e1a00003 	mov	r0, r3
8030084c:	e24bd000 	sub	sp, fp, #0
80300850:	e49db004 	pop	{fp}		; (ldr fp, [sp], #4)
80300854:	e12fff1e 	bx	lr

80300858 <thr_init>:
80300858:	e92d4800 	push	{fp, lr}
8030085c:	e28db004 	add	fp, sp, #4
80300860:	e24dd010 	sub	sp, sp, #16
80300864:	e308320c 	movw	r3, #33292	; 0x820c
80300868:	e3483031 	movt	r3, #32817	; 0x8031
8030086c:	e3a02001 	mov	r2, #1
80300870:	e5832000 	str	r2, [r3]
80300874:	e3073c4c 	movw	r3, #31820	; 0x7c4c
80300878:	e3483031 	movt	r3, #32817	; 0x8031
8030087c:	e3a02000 	mov	r2, #0
80300880:	e5832000 	str	r2, [r3]
80300884:	eb000623 	bl	80302118 <sem_init>
80300888:	e3073c5c 	movw	r3, #31836	; 0x7c5c
8030088c:	e3483031 	movt	r3, #32817	; 0x8031
80300890:	e3a02326 	mov	r2, #-1744830464	; 0x98000000
80300894:	e5832000 	str	r2, [r3]
80300898:	e3073c60 	movw	r3, #31840	; 0x7c60
8030089c:	e3483031 	movt	r3, #32817	; 0x8031
803008a0:	e3a02702 	mov	r2, #524288	; 0x80000
803008a4:	e5832000 	str	r2, [r3]
803008a8:	e3073c64 	movw	r3, #31844	; 0x7c64
803008ac:	e3483031 	movt	r3, #32817	; 0x8031
803008b0:	e3a02000 	mov	r2, #0
803008b4:	e5832000 	str	r2, [r3]
803008b8:	e3073c54 	movw	r3, #31828	; 0x7c54
803008bc:	e3483031 	movt	r3, #32817	; 0x8031
803008c0:	e3a02000 	mov	r2, #0
803008c4:	e5832000 	str	r2, [r3]
803008c8:	e3a03000 	mov	r3, #0
803008cc:	e50b3008 	str	r3, [fp, #-8]
803008d0:	ea000014 	b	80300928 <thr_init+0xd0>
803008d4:	e51b2008 	ldr	r2, [fp, #-8]
803008d8:	e1a03002 	mov	r3, r2
803008dc:	e1a03083 	lsl	r3, r3, #1
803008e0:	e0833002 	add	r3, r3, r2
803008e4:	e1a03303 	lsl	r3, r3, #6
803008e8:	e306244c 	movw	r2, #25676	; 0x644c
803008ec:	e3482031 	movt	r2, #32817	; 0x8031
803008f0:	e0833002 	add	r3, r3, r2
803008f4:	e50b300c 	str	r3, [fp, #-12]
803008f8:	e3073c54 	movw	r3, #31828	; 0x7c54
803008fc:	e3483031 	movt	r3, #32817	; 0x8031
80300900:	e5932000 	ldr	r2, [r3]
80300904:	e51b300c 	ldr	r3, [fp, #-12]
80300908:	e5832084 	str	r2, [r3, #132]	; 0x84
8030090c:	e3073c54 	movw	r3, #31828	; 0x7c54
80300910:	e3483031 	movt	r3, #32817	; 0x8031
80300914:	e51b200c 	ldr	r2, [fp, #-12]
80300918:	e5832000 	str	r2, [r3]
8030091c:	e51b3008 	ldr	r3, [fp, #-8]
80300920:	e2833001 	add	r3, r3, #1
80300924:	e50b3008 	str	r3, [fp, #-8]
80300928:	e51b3008 	ldr	r3, [fp, #-8]
8030092c:	e353001f 	cmp	r3, #31
80300930:	daffffe7 	ble	803008d4 <thr_init+0x7c>
80300934:	e3083210 	movw	r3, #33296	; 0x8210
80300938:	e3483031 	movt	r3, #32817	; 0x8031
8030093c:	e3a02000 	mov	r2, #0
80300940:	e5832000 	str	r2, [r3]
80300944:	e3073c58 	movw	r3, #31832	; 0x7c58
80300948:	e3483031 	movt	r3, #32817	; 0x8031
8030094c:	e3a02000 	mov	r2, #0
80300950:	e5832000 	str	r2, [r3]
80300954:	e3a03000 	mov	r3, #0
80300958:	e58d3000 	str	r3, [sp]
8030095c:	e3050d60 	movw	r0, #23904	; 0x5d60
80300960:	e3480030 	movt	r0, #32816	; 0x8030
80300964:	e30015b4 	movw	r1, #1460	; 0x5b4
80300968:	e3481030 	movt	r1, #32816	; 0x8030
8030096c:	e3a02000 	mov	r2, #0
80300970:	e3a03005 	mov	r3, #5
80300974:	eb0001d2 	bl	803010c4 <thr_new>
80300978:	e1a02000 	mov	r2, r0
8030097c:	e3083210 	movw	r3, #33296	; 0x8210
80300980:	e3483031 	movt	r3, #32817	; 0x8031
80300984:	e5832000 	str	r2, [r3]
80300988:	e24bd004 	sub	sp, fp, #4
8030098c:	e8bd8800 	pop	{fp, pc}

80300990 <thr_debug>:
80300990:	e52db004 	push	{fp}		; (str fp, [sp, #-4]!)
80300994:	e28db000 	add	fp, sp, #0
80300998:	e24dd00c 	sub	sp, sp, #12
8030099c:	e50b0008 	str	r0, [fp, #-8]
803009a0:	e308320c 	movw	r3, #33292	; 0x820c
803009a4:	e3483031 	movt	r3, #32817	; 0x8031
803009a8:	e51b2008 	ldr	r2, [fp, #-8]
803009ac:	e5832000 	str	r2, [r3]
803009b0:	e24bd000 	sub	sp, fp, #0
803009b4:	e49db004 	pop	{fp}		; (ldr fp, [sp], #4)
803009b8:	e12fff1e 	bx	lr

803009bc <thr_sched>:
803009bc:	e92d4800 	push	{fp, lr}
803009c0:	e28db004 	add	fp, sp, #4
803009c4:	e308320c 	movw	r3, #33292	; 0x820c
803009c8:	e3483031 	movt	r3, #32817	; 0x8031
803009cc:	e5933000 	ldr	r3, [r3]
803009d0:	e3530000 	cmp	r3, #0
803009d4:	0a000006 	beq	803009f4 <thr_sched+0x38>
803009d8:	e3073c4c 	movw	r3, #31820	; 0x7c4c
803009dc:	e3483031 	movt	r3, #32817	; 0x8031
803009e0:	e5933000 	ldr	r3, [r3]
803009e4:	e3050d64 	movw	r0, #23908	; 0x5d64
803009e8:	e3480030 	movt	r0, #32816	; 0x8030
803009ec:	e1a01003 	mov	r1, r3
803009f0:	eb000e6e 	bl	803043b0 <printf>
803009f4:	e3073c4c 	movw	r3, #31820	; 0x7c4c
803009f8:	e3483031 	movt	r3, #32817	; 0x8031
803009fc:	e5933000 	ldr	r3, [r3]
80300a00:	e3530000 	cmp	r3, #0
80300a04:	0a000002 	beq	80300a14 <thr_sched+0x58>
80300a08:	e3050d7c 	movw	r0, #23932	; 0x5d7c
80300a0c:	e3480030 	movt	r0, #32816	; 0x8030
80300a10:	eb000e76 	bl	803043f0 <panic>
80300a14:	e3073c4c 	movw	r3, #31820	; 0x7c4c
80300a18:	e3483031 	movt	r3, #32817	; 0x8031
80300a1c:	e3a02001 	mov	r2, #1
80300a20:	e5832000 	str	r2, [r3]
80300a24:	e3083210 	movw	r3, #33296	; 0x8210
80300a28:	e3483031 	movt	r3, #32817	; 0x8031
80300a2c:	e5933000 	ldr	r3, [r3]
80300a30:	e5933040 	ldr	r3, [r3, #64]	; 0x40
80300a34:	e3050d88 	movw	r0, #23944	; 0x5d88
80300a38:	e3480030 	movt	r0, #32816	; 0x8030
80300a3c:	e1a01003 	mov	r1, r3
80300a40:	eb000e5a 	bl	803043b0 <printf>
80300a44:	e3083210 	movw	r3, #33296	; 0x8210
80300a48:	e3483031 	movt	r3, #32817	; 0x8031
80300a4c:	e5933000 	ldr	r3, [r3]
80300a50:	e5933040 	ldr	r3, [r3, #64]	; 0x40
80300a54:	e1a00003 	mov	r0, r3
80300a58:	ebfffd86 	bl	80300078 <resume_c>
80300a5c:	e8bd8800 	pop	{fp, pc}

80300a60 <thr_one_all>:
80300a60:	e92d4800 	push	{fp, lr}
80300a64:	e28db004 	add	fp, sp, #4
80300a68:	e24dd008 	sub	sp, sp, #8
80300a6c:	e50b0008 	str	r0, [fp, #-8]
80300a70:	e50b100c 	str	r1, [fp, #-12]
80300a74:	e51b3008 	ldr	r3, [fp, #-8]
80300a78:	e28330ac 	add	r3, r3, #172	; 0xac
80300a7c:	e3050db0 	movw	r0, #23984	; 0x5db0
80300a80:	e3480030 	movt	r0, #32816	; 0x8030
80300a84:	e1a01003 	mov	r1, r3
80300a88:	e51b200c 	ldr	r2, [fp, #-12]
80300a8c:	eb000e47 	bl	803043b0 <printf>
80300a90:	e51b0008 	ldr	r0, [fp, #-8]
80300a94:	eb000074 	bl	80300c6c <thr_one>
80300a98:	e3050dc8 	movw	r0, #24008	; 0x5dc8
80300a9c:	e3480030 	movt	r0, #32816	; 0x8030
80300aa0:	eb000e42 	bl	803043b0 <printf>
80300aa4:	e51b0008 	ldr	r0, [fp, #-8]
80300aa8:	eb000034 	bl	80300b80 <thr_show_state>
80300aac:	e3050dd4 	movw	r0, #24020	; 0x5dd4
80300ab0:	e3480030 	movt	r0, #32816	; 0x8030
80300ab4:	eb000e3d 	bl	803043b0 <printf>
80300ab8:	e51b3008 	ldr	r3, [fp, #-8]
80300abc:	e5933098 	ldr	r3, [r3, #152]	; 0x98
80300ac0:	e3050dd8 	movw	r0, #24024	; 0x5dd8
80300ac4:	e3480030 	movt	r0, #32816	; 0x8030
80300ac8:	e1a01003 	mov	r1, r3
80300acc:	eb000e37 	bl	803043b0 <printf>
80300ad0:	e3050dd4 	movw	r0, #24020	; 0x5dd4
80300ad4:	e3480030 	movt	r0, #32816	; 0x8030
80300ad8:	eb000e34 	bl	803043b0 <printf>
80300adc:	e24bd004 	sub	sp, fp, #4
80300ae0:	e8bd8800 	pop	{fp, pc}

80300ae4 <thr_show_name>:
80300ae4:	e92d4800 	push	{fp, lr}
80300ae8:	e28db004 	add	fp, sp, #4
80300aec:	e24dd010 	sub	sp, sp, #16
80300af0:	e50b0010 	str	r0, [fp, #-16]
80300af4:	e3a03000 	mov	r3, #0
80300af8:	e50b300c 	str	r3, [fp, #-12]
80300afc:	e3073c58 	movw	r3, #31832	; 0x7c58
80300b00:	e3483031 	movt	r3, #32817	; 0x8031
80300b04:	e5933000 	ldr	r3, [r3]
80300b08:	e50b3008 	str	r3, [fp, #-8]
80300b0c:	ea000010 	b	80300b54 <thr_show_name+0x70>
80300b10:	e51b3008 	ldr	r3, [fp, #-8]
80300b14:	e28330ac 	add	r3, r3, #172	; 0xac
80300b18:	e1a00003 	mov	r0, r3
80300b1c:	e51b1010 	ldr	r1, [fp, #-16]
80300b20:	eb00114d 	bl	8030505c <strcmp>
80300b24:	e1a03000 	mov	r3, r0
80300b28:	e3530000 	cmp	r3, #0
80300b2c:	1a000005 	bne	80300b48 <thr_show_name+0x64>
80300b30:	e51b0008 	ldr	r0, [fp, #-8]
80300b34:	e3051de8 	movw	r1, #24040	; 0x5de8
80300b38:	e3481030 	movt	r1, #32816	; 0x8030
80300b3c:	ebffffc7 	bl	80300a60 <thr_one_all>
80300b40:	e3a03001 	mov	r3, #1
80300b44:	e50b300c 	str	r3, [fp, #-12]
80300b48:	e51b3008 	ldr	r3, [fp, #-8]
80300b4c:	e5933084 	ldr	r3, [r3, #132]	; 0x84
80300b50:	e50b3008 	str	r3, [fp, #-8]
80300b54:	e51b3008 	ldr	r3, [fp, #-8]
80300b58:	e3530000 	cmp	r3, #0
80300b5c:	1affffeb 	bne	80300b10 <thr_show_name+0x2c>
80300b60:	e51b300c 	ldr	r3, [fp, #-12]
80300b64:	e3530000 	cmp	r3, #0
80300b68:	1a000002 	bne	80300b78 <thr_show_name+0x94>
80300b6c:	e3050dec 	movw	r0, #24044	; 0x5dec
80300b70:	e3480030 	movt	r0, #32816	; 0x8030
80300b74:	eb000e0d 	bl	803043b0 <printf>
80300b78:	e24bd004 	sub	sp, fp, #4
80300b7c:	e8bd8800 	pop	{fp, pc}

80300b80 <thr_show_state>:
80300b80:	e92d4800 	push	{fp, lr}
80300b84:	e28db004 	add	fp, sp, #4
80300b88:	e24dd008 	sub	sp, sp, #8
80300b8c:	e50b0008 	str	r0, [fp, #-8]
80300b90:	e51b3008 	ldr	r3, [fp, #-8]
80300b94:	e593308c 	ldr	r3, [r3, #140]	; 0x8c
80300b98:	e3530008 	cmp	r3, #8
80300b9c:	979ff103 	ldrls	pc, [pc, r3, lsl #2]
80300ba0:	ea000028 	b	80300c48 <thr_show_state+0xc8>
80300ba4:	80300bc8 	.word	0x80300bc8
80300ba8:	80300bd8 	.word	0x80300bd8
80300bac:	80300be8 	.word	0x80300be8
80300bb0:	80300bf8 	.word	0x80300bf8
80300bb4:	80300c28 	.word	0x80300c28
80300bb8:	80300c08 	.word	0x80300c08
80300bbc:	80300c18 	.word	0x80300c18
80300bc0:	80300c48 	.word	0x80300c48
80300bc4:	80300c38 	.word	0x80300c38
80300bc8:	e3050e04 	movw	r0, #24068	; 0x5e04
80300bcc:	e3480030 	movt	r0, #32816	; 0x8030
80300bd0:	eb000df6 	bl	803043b0 <printf>
80300bd4:	ea000022 	b	80300c64 <thr_show_state+0xe4>
80300bd8:	e3050e10 	movw	r0, #24080	; 0x5e10
80300bdc:	e3480030 	movt	r0, #32816	; 0x8030
80300be0:	eb000df2 	bl	803043b0 <printf>
80300be4:	ea00001e 	b	80300c64 <thr_show_state+0xe4>
80300be8:	e3050e1c 	movw	r0, #24092	; 0x5e1c
80300bec:	e3480030 	movt	r0, #32816	; 0x8030
80300bf0:	eb000dee 	bl	803043b0 <printf>
80300bf4:	ea00001a 	b	80300c64 <thr_show_state+0xe4>
80300bf8:	e3050e28 	movw	r0, #24104	; 0x5e28
80300bfc:	e3480030 	movt	r0, #32816	; 0x8030
80300c00:	eb000dea 	bl	803043b0 <printf>
80300c04:	ea000016 	b	80300c64 <thr_show_state+0xe4>
80300c08:	e3050e34 	movw	r0, #24116	; 0x5e34
80300c0c:	e3480030 	movt	r0, #32816	; 0x8030
80300c10:	eb000de6 	bl	803043b0 <printf>
80300c14:	ea000012 	b	80300c64 <thr_show_state+0xe4>
80300c18:	e3050e40 	movw	r0, #24128	; 0x5e40
80300c1c:	e3480030 	movt	r0, #32816	; 0x8030
80300c20:	eb000de2 	bl	803043b0 <printf>
80300c24:	ea00000e 	b	80300c64 <thr_show_state+0xe4>
80300c28:	e3050e4c 	movw	r0, #24140	; 0x5e4c
80300c2c:	e3480030 	movt	r0, #32816	; 0x8030
80300c30:	eb000dde 	bl	803043b0 <printf>
80300c34:	ea00000a 	b	80300c64 <thr_show_state+0xe4>
80300c38:	e3050e58 	movw	r0, #24152	; 0x5e58
80300c3c:	e3480030 	movt	r0, #32816	; 0x8030
80300c40:	eb000dda 	bl	803043b0 <printf>
80300c44:	ea000006 	b	80300c64 <thr_show_state+0xe4>
80300c48:	e51b3008 	ldr	r3, [fp, #-8]
80300c4c:	e593308c 	ldr	r3, [r3, #140]	; 0x8c
80300c50:	e3050e64 	movw	r0, #24164	; 0x5e64
80300c54:	e3480030 	movt	r0, #32816	; 0x8030
80300c58:	e1a01003 	mov	r1, r3
80300c5c:	eb000dd3 	bl	803043b0 <printf>
80300c60:	e1a00000 	nop			; (mov r0, r0)
80300c64:	e24bd004 	sub	sp, fp, #4
80300c68:	e8bd8800 	pop	{fp, pc}

80300c6c <thr_one>:
80300c6c:	e92d4800 	push	{fp, lr}
80300c70:	e28db004 	add	fp, sp, #4
80300c74:	e24dd008 	sub	sp, sp, #8
80300c78:	e50b0008 	str	r0, [fp, #-8]
80300c7c:	e51b3008 	ldr	r3, [fp, #-8]
80300c80:	e3530000 	cmp	r3, #0
80300c84:	1a000003 	bne	80300c98 <thr_one+0x2c>
80300c88:	e3050e70 	movw	r0, #24176	; 0x5e70
80300c8c:	e3480030 	movt	r0, #32816	; 0x8030
80300c90:	eb000dc6 	bl	803043b0 <printf>
80300c94:	ea00003d 	b	80300d90 <thr_one+0x124>
80300c98:	e3083210 	movw	r3, #33296	; 0x8210
80300c9c:	e3483031 	movt	r3, #32817	; 0x8031
80300ca0:	e5933000 	ldr	r3, [r3]
80300ca4:	e51b2008 	ldr	r2, [fp, #-8]
80300ca8:	e1520003 	cmp	r2, r3
80300cac:	1a000003 	bne	80300cc0 <thr_one+0x54>
80300cb0:	e3050e7c 	movw	r0, #24188	; 0x5e7c
80300cb4:	e3480030 	movt	r0, #32816	; 0x8030
80300cb8:	eb000dbc 	bl	803043b0 <printf>
80300cbc:	ea000002 	b	80300ccc <thr_one+0x60>
80300cc0:	e3050e80 	movw	r0, #24192	; 0x5e80
80300cc4:	e3480030 	movt	r0, #32816	; 0x8030
80300cc8:	eb000db8 	bl	803043b0 <printf>
80300ccc:	e51b3008 	ldr	r3, [fp, #-8]
80300cd0:	e28330ac 	add	r3, r3, #172	; 0xac
80300cd4:	e3050e84 	movw	r0, #24196	; 0x5e84
80300cd8:	e3480030 	movt	r0, #32816	; 0x8030
80300cdc:	e1a01003 	mov	r1, r3
80300ce0:	eb000db2 	bl	803043b0 <printf>
80300ce4:	e3050e94 	movw	r0, #24212	; 0x5e94
80300ce8:	e3480030 	movt	r0, #32816	; 0x8030
80300cec:	e51b1008 	ldr	r1, [fp, #-8]
80300cf0:	eb000dae 	bl	803043b0 <printf>
80300cf4:	e51b0008 	ldr	r0, [fp, #-8]
80300cf8:	ebffffa0 	bl	80300b80 <thr_show_state>
80300cfc:	e51b3008 	ldr	r3, [fp, #-8]
80300d00:	e5933090 	ldr	r3, [r3, #144]	; 0x90
80300d04:	e3530000 	cmp	r3, #0
80300d08:	1a000003 	bne	80300d1c <thr_one+0xb0>
80300d0c:	e3050e9c 	movw	r0, #24220	; 0x5e9c
80300d10:	e3480030 	movt	r0, #32816	; 0x8030
80300d14:	eb000da5 	bl	803043b0 <printf>
80300d18:	ea000015 	b	80300d74 <thr_one+0x108>
80300d1c:	e51b3008 	ldr	r3, [fp, #-8]
80300d20:	e5933090 	ldr	r3, [r3, #144]	; 0x90
80300d24:	e3530001 	cmp	r3, #1
80300d28:	1a000003 	bne	80300d3c <thr_one+0xd0>
80300d2c:	e3050ea0 	movw	r0, #24224	; 0x5ea0
80300d30:	e3480030 	movt	r0, #32816	; 0x8030
80300d34:	eb000d9d 	bl	803043b0 <printf>
80300d38:	ea00000d 	b	80300d74 <thr_one+0x108>
80300d3c:	e51b3008 	ldr	r3, [fp, #-8]
80300d40:	e5933090 	ldr	r3, [r3, #144]	; 0x90
80300d44:	e3530002 	cmp	r3, #2
80300d48:	1a000003 	bne	80300d5c <thr_one+0xf0>
80300d4c:	e3050ea4 	movw	r0, #24228	; 0x5ea4
80300d50:	e3480030 	movt	r0, #32816	; 0x8030
80300d54:	eb000d95 	bl	803043b0 <printf>
80300d58:	ea000005 	b	80300d74 <thr_one+0x108>
80300d5c:	e51b3008 	ldr	r3, [fp, #-8]
80300d60:	e5933090 	ldr	r3, [r3, #144]	; 0x90
80300d64:	e3050ea8 	movw	r0, #24232	; 0x5ea8
80300d68:	e3480030 	movt	r0, #32816	; 0x8030
80300d6c:	e1a01003 	mov	r1, r3
80300d70:	eb000d8e 	bl	803043b0 <printf>
80300d74:	e51b3008 	ldr	r3, [fp, #-8]
80300d78:	e59330a0 	ldr	r3, [r3, #160]	; 0xa0
80300d7c:	e3050eac 	movw	r0, #24236	; 0x5eac
80300d80:	e3480030 	movt	r0, #32816	; 0x8030
80300d84:	e3a01000 	mov	r1, #0
80300d88:	e1a02003 	mov	r2, r3
80300d8c:	eb000d87 	bl	803043b0 <printf>
80300d90:	e24bd004 	sub	sp, fp, #4
80300d94:	e8bd8800 	pop	{fp, pc}

80300d98 <thr_show>:
80300d98:	e92d4800 	push	{fp, lr}
80300d9c:	e28db004 	add	fp, sp, #4
80300da0:	e24dd008 	sub	sp, sp, #8
80300da4:	e3050eb8 	movw	r0, #24248	; 0x5eb8
80300da8:	e3480030 	movt	r0, #32816	; 0x8030
80300dac:	eb000d7f 	bl	803043b0 <printf>
80300db0:	e3073c58 	movw	r3, #31832	; 0x7c58
80300db4:	e3483031 	movt	r3, #32817	; 0x8031
80300db8:	e5933000 	ldr	r3, [r3]
80300dbc:	e50b3008 	str	r3, [fp, #-8]
80300dc0:	ea000004 	b	80300dd8 <thr_show+0x40>
80300dc4:	e51b0008 	ldr	r0, [fp, #-8]
80300dc8:	ebffffa7 	bl	80300c6c <thr_one>
80300dcc:	e51b3008 	ldr	r3, [fp, #-8]
80300dd0:	e5933084 	ldr	r3, [r3, #132]	; 0x84
80300dd4:	e50b3008 	str	r3, [fp, #-8]
80300dd8:	e51b3008 	ldr	r3, [fp, #-8]
80300ddc:	e3530000 	cmp	r3, #0
80300de0:	1afffff7 	bne	80300dc4 <thr_show+0x2c>
80300de4:	e3083210 	movw	r3, #33296	; 0x8210
80300de8:	e3483031 	movt	r3, #32817	; 0x8031
80300dec:	e5933000 	ldr	r3, [r3]
80300df0:	e3050eec 	movw	r0, #24300	; 0x5eec
80300df4:	e3480030 	movt	r0, #32816	; 0x8030
80300df8:	e1a01003 	mov	r1, r3
80300dfc:	eb000d6b 	bl	803043b0 <printf>
80300e00:	e3083204 	movw	r3, #33284	; 0x8204
80300e04:	e3483031 	movt	r3, #32817	; 0x8031
80300e08:	e5933000 	ldr	r3, [r3]
80300e0c:	e3530000 	cmp	r3, #0
80300e10:	0a000003 	beq	80300e24 <thr_show+0x8c>
80300e14:	e3050f04 	movw	r0, #24324	; 0x5f04
80300e18:	e3480030 	movt	r0, #32816	; 0x8030
80300e1c:	eb000d63 	bl	803043b0 <printf>
80300e20:	ea000002 	b	80300e30 <thr_show+0x98>
80300e24:	e3050dd4 	movw	r0, #24020	; 0x5dd4
80300e28:	e3480030 	movt	r0, #32816	; 0x8030
80300e2c:	eb000d5f 	bl	803043b0 <printf>
80300e30:	e24bd004 	sub	sp, fp, #4
80300e34:	e8bd8800 	pop	{fp, pc}

80300e38 <thr_show_current>:
80300e38:	e92d4800 	push	{fp, lr}
80300e3c:	e28db004 	add	fp, sp, #4
80300e40:	e3083210 	movw	r3, #33296	; 0x8210
80300e44:	e3483031 	movt	r3, #32817	; 0x8031
80300e48:	e5933000 	ldr	r3, [r3]
80300e4c:	e1a00003 	mov	r0, r3
80300e50:	e3051f0c 	movw	r1, #24332	; 0x5f0c
80300e54:	e3481030 	movt	r1, #32816	; 0x8030
80300e58:	ebffff00 	bl	80300a60 <thr_one_all>
80300e5c:	e8bd8800 	pop	{fp, pc}

80300e60 <thrcp>:
80300e60:	e52db004 	push	{fp}		; (str fp, [sp, #-4]!)
80300e64:	e28db000 	add	fp, sp, #0
80300e68:	e24dd014 	sub	sp, sp, #20
80300e6c:	e50b0008 	str	r0, [fp, #-8]
80300e70:	e50b100c 	str	r1, [fp, #-12]
80300e74:	e50b2010 	str	r2, [fp, #-16]
80300e78:	ea000007 	b	80300e9c <thrcp+0x3c>
80300e7c:	e51b3008 	ldr	r3, [fp, #-8]
80300e80:	e2832001 	add	r2, r3, #1
80300e84:	e50b2008 	str	r2, [fp, #-8]
80300e88:	e51b200c 	ldr	r2, [fp, #-12]
80300e8c:	e2821001 	add	r1, r2, #1
80300e90:	e50b100c 	str	r1, [fp, #-12]
80300e94:	e5d22000 	ldrb	r2, [r2]
80300e98:	e5c32000 	strb	r2, [r3]
80300e9c:	e51b3010 	ldr	r3, [fp, #-16]
80300ea0:	e2432001 	sub	r2, r3, #1
80300ea4:	e50b2010 	str	r2, [fp, #-16]
80300ea8:	e3530000 	cmp	r3, #0
80300eac:	0a000003 	beq	80300ec0 <thrcp+0x60>
80300eb0:	e51b300c 	ldr	r3, [fp, #-12]
80300eb4:	e5d33000 	ldrb	r3, [r3]
80300eb8:	e3530000 	cmp	r3, #0
80300ebc:	1affffee 	bne	80300e7c <thrcp+0x1c>
80300ec0:	e51b3008 	ldr	r3, [fp, #-8]
80300ec4:	e3a02000 	mov	r2, #0
80300ec8:	e5c32000 	strb	r2, [r3]
80300ecc:	e24bd000 	sub	sp, fp, #0
80300ed0:	e49db004 	pop	{fp}		; (ldr fp, [sp], #4)
80300ed4:	e12fff1e 	bx	lr

80300ed8 <thrnm_i>:
80300ed8:	e92d4800 	push	{fp, lr}
80300edc:	e28db004 	add	fp, sp, #4
80300ee0:	e24dd008 	sub	sp, sp, #8
80300ee4:	e50b0008 	str	r0, [fp, #-8]
80300ee8:	e50b100c 	str	r1, [fp, #-12]
80300eec:	e51b300c 	ldr	r3, [fp, #-12]
80300ef0:	e3530009 	cmp	r3, #9
80300ef4:	ca000008 	bgt	80300f1c <thrnm_i+0x44>
80300ef8:	e51b3008 	ldr	r3, [fp, #-8]
80300efc:	e2832001 	add	r2, r3, #1
80300f00:	e50b2008 	str	r2, [fp, #-8]
80300f04:	e51b200c 	ldr	r2, [fp, #-12]
80300f08:	e6ef2072 	uxtb	r2, r2
80300f0c:	e2822030 	add	r2, r2, #48	; 0x30
80300f10:	e6ef2072 	uxtb	r2, r2
80300f14:	e5c32000 	strb	r2, [r3]
80300f18:	ea00001d 	b	80300f94 <thrnm_i+0xbc>
80300f1c:	e51b100c 	ldr	r1, [fp, #-12]
80300f20:	e3063667 	movw	r3, #26215	; 0x6667
80300f24:	e3463666 	movt	r3, #26214	; 0x6666
80300f28:	e0c32391 	smull	r2, r3, r1, r3
80300f2c:	e1a02143 	asr	r2, r3, #2
80300f30:	e1a03fc1 	asr	r3, r1, #31
80300f34:	e0633002 	rsb	r3, r3, r2
80300f38:	e51b0008 	ldr	r0, [fp, #-8]
80300f3c:	e1a01003 	mov	r1, r3
80300f40:	ebffffe4 	bl	80300ed8 <thrnm_i>
80300f44:	e50b0008 	str	r0, [fp, #-8]
80300f48:	e51bc008 	ldr	ip, [fp, #-8]
80300f4c:	e28c3001 	add	r3, ip, #1
80300f50:	e50b3008 	str	r3, [fp, #-8]
80300f54:	e51b200c 	ldr	r2, [fp, #-12]
80300f58:	e3063667 	movw	r3, #26215	; 0x6667
80300f5c:	e3463666 	movt	r3, #26214	; 0x6666
80300f60:	e0c10392 	smull	r0, r1, r2, r3
80300f64:	e1a01141 	asr	r1, r1, #2
80300f68:	e1a03fc2 	asr	r3, r2, #31
80300f6c:	e0631001 	rsb	r1, r3, r1
80300f70:	e1a03001 	mov	r3, r1
80300f74:	e1a03103 	lsl	r3, r3, #2
80300f78:	e0833001 	add	r3, r3, r1
80300f7c:	e1a03083 	lsl	r3, r3, #1
80300f80:	e0631002 	rsb	r1, r3, r2
80300f84:	e6ef3071 	uxtb	r3, r1
80300f88:	e2833030 	add	r3, r3, #48	; 0x30
80300f8c:	e6ef3073 	uxtb	r3, r3
80300f90:	e5cc3000 	strb	r3, [ip]
80300f94:	e51b3008 	ldr	r3, [fp, #-8]
80300f98:	e1a00003 	mov	r0, r3
80300f9c:	e24bd004 	sub	sp, fp, #4
80300fa0:	e8bd8800 	pop	{fp, pc}

80300fa4 <thrnm>:
80300fa4:	e92d4800 	push	{fp, lr}
80300fa8:	e28db004 	add	fp, sp, #4
80300fac:	e24dd008 	sub	sp, sp, #8
80300fb0:	e50b0008 	str	r0, [fp, #-8]
80300fb4:	e3073c68 	movw	r3, #31848	; 0x7c68
80300fb8:	e3483031 	movt	r3, #32817	; 0x8031
80300fbc:	e5933000 	ldr	r3, [r3]
80300fc0:	e2832001 	add	r2, r3, #1
80300fc4:	e3073c68 	movw	r3, #31848	; 0x7c68
80300fc8:	e3483031 	movt	r3, #32817	; 0x8031
80300fcc:	e5832000 	str	r2, [r3]
80300fd0:	e51b3008 	ldr	r3, [fp, #-8]
80300fd4:	e2832001 	add	r2, r3, #1
80300fd8:	e50b2008 	str	r2, [fp, #-8]
80300fdc:	e3a02074 	mov	r2, #116	; 0x74
80300fe0:	e5c32000 	strb	r2, [r3]
80300fe4:	e3073c68 	movw	r3, #31848	; 0x7c68
80300fe8:	e3483031 	movt	r3, #32817	; 0x8031
80300fec:	e5933000 	ldr	r3, [r3]
80300ff0:	e51b0008 	ldr	r0, [fp, #-8]
80300ff4:	e1a01003 	mov	r1, r3
80300ff8:	ebffffb6 	bl	80300ed8 <thrnm_i>
80300ffc:	e50b0008 	str	r0, [fp, #-8]
80301000:	e51b3008 	ldr	r3, [fp, #-8]
80301004:	e3a02000 	mov	r2, #0
80301008:	e5c32000 	strb	r2, [r3]
8030100c:	e24bd004 	sub	sp, fp, #4
80301010:	e8bd8800 	pop	{fp, pc}

80301014 <block_c>:
80301014:	e52db004 	push	{fp}		; (str fp, [sp, #-4]!)
80301018:	e28db000 	add	fp, sp, #0
8030101c:	e24dd01c 	sub	sp, sp, #28
80301020:	e50b0010 	str	r0, [fp, #-16]
80301024:	e50b1014 	str	r1, [fp, #-20]	; 0xffffffec
80301028:	e50b2018 	str	r2, [fp, #-24]	; 0xffffffe8
8030102c:	e51b3010 	ldr	r3, [fp, #-16]
80301030:	e5933098 	ldr	r3, [r3, #152]	; 0x98
80301034:	e51b2010 	ldr	r2, [fp, #-16]
80301038:	e592209c 	ldr	r2, [r2, #156]	; 0x9c
8030103c:	e0833002 	add	r3, r3, r2
80301040:	e50b3008 	str	r3, [fp, #-8]
80301044:	e51b3008 	ldr	r3, [fp, #-8]
80301048:	e2433010 	sub	r3, r3, #16
8030104c:	e50b3008 	str	r3, [fp, #-8]
80301050:	e51b2018 	ldr	r2, [fp, #-24]	; 0xffffffe8
80301054:	e51b3008 	ldr	r3, [fp, #-8]
80301058:	e5832000 	str	r2, [r3]
8030105c:	e51b3008 	ldr	r3, [fp, #-8]
80301060:	e2833004 	add	r3, r3, #4
80301064:	e51b2010 	ldr	r2, [fp, #-16]
80301068:	e5922098 	ldr	r2, [r2, #152]	; 0x98
8030106c:	e51b1010 	ldr	r1, [fp, #-16]
80301070:	e591109c 	ldr	r1, [r1, #156]	; 0x9c
80301074:	e0822001 	add	r2, r2, r1
80301078:	e5832000 	str	r2, [r3]
8030107c:	e51b3008 	ldr	r3, [fp, #-8]
80301080:	e2832008 	add	r2, r3, #8
80301084:	e30134fc 	movw	r3, #5372	; 0x14fc
80301088:	e3483030 	movt	r3, #32816	; 0x8030
8030108c:	e5823000 	str	r3, [r2]
80301090:	e51b3008 	ldr	r3, [fp, #-8]
80301094:	e283300c 	add	r3, r3, #12
80301098:	e51b2014 	ldr	r2, [fp, #-20]	; 0xffffffec
8030109c:	e5832000 	str	r2, [r3]
803010a0:	e51b2008 	ldr	r2, [fp, #-8]
803010a4:	e51b3010 	ldr	r3, [fp, #-16]
803010a8:	e5832040 	str	r2, [r3, #64]	; 0x40
803010ac:	e51b3010 	ldr	r3, [fp, #-16]
803010b0:	e3a02002 	mov	r2, #2
803010b4:	e5832090 	str	r2, [r3, #144]	; 0x90
803010b8:	e24bd000 	sub	sp, fp, #0
803010bc:	e49db004 	pop	{fp}		; (ldr fp, [sp], #4)
803010c0:	e12fff1e 	bx	lr

803010c4 <thr_new>:
803010c4:	e92d4800 	push	{fp, lr}
803010c8:	e28db004 	add	fp, sp, #4
803010cc:	e24dd020 	sub	sp, sp, #32
803010d0:	e50b0018 	str	r0, [fp, #-24]	; 0xffffffe8
803010d4:	e50b101c 	str	r1, [fp, #-28]	; 0xffffffe4
803010d8:	e50b2020 	str	r2, [fp, #-32]	; 0xffffffe0
803010dc:	e50b3024 	str	r3, [fp, #-36]	; 0xffffffdc
803010e0:	e59b3004 	ldr	r3, [fp, #4]
803010e4:	e2033002 	and	r3, r3, #2
803010e8:	e3530000 	cmp	r3, #0
803010ec:	0a000002 	beq	803010fc <thr_new+0x38>
803010f0:	e3050f10 	movw	r0, #24336	; 0x5f10
803010f4:	e3480030 	movt	r0, #32816	; 0x8030
803010f8:	eb000cbc 	bl	803043f0 <panic>
803010fc:	e3a00a01 	mov	r0, #4096	; 0x1000
80301100:	ebfffd74 	bl	803006d8 <thr_alloc>
80301104:	e50b0010 	str	r0, [fp, #-16]
80301108:	e51b3010 	ldr	r3, [fp, #-16]
8030110c:	e3530000 	cmp	r3, #0
80301110:	1a000004 	bne	80301128 <thr_new+0x64>
80301114:	e3050f30 	movw	r0, #24368	; 0x5f30
80301118:	e3480030 	movt	r0, #32816	; 0x8030
8030111c:	eb000cb3 	bl	803043f0 <panic>
80301120:	e3a03000 	mov	r3, #0
80301124:	ea0000b2 	b	803013f4 <thr_new+0x330>
80301128:	e3073c54 	movw	r3, #31828	; 0x7c54
8030112c:	e3483031 	movt	r3, #32817	; 0x8031
80301130:	e5933000 	ldr	r3, [r3]
80301134:	e3530000 	cmp	r3, #0
80301138:	1a000007 	bne	8030115c <thr_new+0x98>
8030113c:	e51b0010 	ldr	r0, [fp, #-16]
80301140:	e3a01a01 	mov	r1, #4096	; 0x1000
80301144:	ebfffdac 	bl	803007fc <thr_free>
80301148:	e3050f48 	movw	r0, #24392	; 0x5f48
8030114c:	e3480030 	movt	r0, #32816	; 0x8030
80301150:	eb000ca6 	bl	803043f0 <panic>
80301154:	e3a03000 	mov	r3, #0
80301158:	ea0000a5 	b	803013f4 <thr_new+0x330>
8030115c:	e3073c54 	movw	r3, #31828	; 0x7c54
80301160:	e3483031 	movt	r3, #32817	; 0x8031
80301164:	e5933000 	ldr	r3, [r3]
80301168:	e50b3014 	str	r3, [fp, #-20]	; 0xffffffec
8030116c:	e51b3014 	ldr	r3, [fp, #-20]	; 0xffffffec
80301170:	e5932084 	ldr	r2, [r3, #132]	; 0x84
80301174:	e3073c54 	movw	r3, #31828	; 0x7c54
80301178:	e3483031 	movt	r3, #32817	; 0x8031
8030117c:	e5832000 	str	r2, [r3]
80301180:	e3073c4c 	movw	r3, #31820	; 0x7c4c
80301184:	e3483031 	movt	r3, #32817	; 0x8031
80301188:	e5933000 	ldr	r3, [r3]
8030118c:	e3530000 	cmp	r3, #0
80301190:	0a000009 	beq	803011bc <thr_new+0xf8>
80301194:	e51b3024 	ldr	r3, [fp, #-36]	; 0xffffffdc
80301198:	e3530fe1 	cmp	r3, #900	; 0x384
8030119c:	ba000001 	blt	803011a8 <thr_new+0xe4>
803011a0:	e3003383 	movw	r3, #899	; 0x383
803011a4:	e50b3024 	str	r3, [fp, #-36]	; 0xffffffdc
803011a8:	e51b3024 	ldr	r3, [fp, #-36]	; 0xffffffdc
803011ac:	e3530009 	cmp	r3, #9
803011b0:	ca000001 	bgt	803011bc <thr_new+0xf8>
803011b4:	e3a0300a 	mov	r3, #10
803011b8:	e50b3024 	str	r3, [fp, #-36]	; 0xffffffdc
803011bc:	e51b3014 	ldr	r3, [fp, #-20]	; 0xffffffec
803011c0:	e51b2010 	ldr	r2, [fp, #-16]
803011c4:	e5832098 	str	r2, [r3, #152]	; 0x98
803011c8:	e51b3014 	ldr	r3, [fp, #-20]	; 0xffffffec
803011cc:	e3a02a01 	mov	r2, #4096	; 0x1000
803011d0:	e583209c 	str	r2, [r3, #156]	; 0x9c
803011d4:	e51b3018 	ldr	r3, [fp, #-24]	; 0xffffffe8
803011d8:	e3530000 	cmp	r3, #0
803011dc:	0a000006 	beq	803011fc <thr_new+0x138>
803011e0:	e51b3014 	ldr	r3, [fp, #-20]	; 0xffffffec
803011e4:	e28330ac 	add	r3, r3, #172	; 0xac
803011e8:	e1a00003 	mov	r0, r3
803011ec:	e51b1018 	ldr	r1, [fp, #-24]	; 0xffffffe8
803011f0:	e3a02005 	mov	r2, #5
803011f4:	ebffff19 	bl	80300e60 <thrcp>
803011f8:	ea000003 	b	8030120c <thr_new+0x148>
803011fc:	e51b3014 	ldr	r3, [fp, #-20]	; 0xffffffec
80301200:	e28330ac 	add	r3, r3, #172	; 0xac
80301204:	e1a00003 	mov	r0, r3
80301208:	ebffff65 	bl	80300fa4 <thrnm>
8030120c:	e51b3014 	ldr	r3, [fp, #-20]	; 0xffffffec
80301210:	e51b2024 	ldr	r2, [fp, #-36]	; 0xffffffdc
80301214:	e58320a0 	str	r2, [r3, #160]	; 0xa0
80301218:	e51b3014 	ldr	r3, [fp, #-20]	; 0xffffffec
8030121c:	e3a02000 	mov	r2, #0
80301220:	e5832080 	str	r2, [r3, #128]	; 0x80
80301224:	e51b3014 	ldr	r3, [fp, #-20]	; 0xffffffec
80301228:	e59b2004 	ldr	r2, [fp, #4]
8030122c:	e58320b4 	str	r2, [r3, #180]	; 0xb4
80301230:	e51b3014 	ldr	r3, [fp, #-20]	; 0xffffffec
80301234:	e3a02000 	mov	r2, #0
80301238:	e58320b8 	str	r2, [r3, #184]	; 0xb8
8030123c:	e51b3014 	ldr	r3, [fp, #-20]	; 0xffffffec
80301240:	e3a02000 	mov	r2, #0
80301244:	e58320bc 	str	r2, [r3, #188]	; 0xbc
80301248:	e3083210 	movw	r3, #33296	; 0x8210
8030124c:	e3483031 	movt	r3, #32817	; 0x8031
80301250:	e5933000 	ldr	r3, [r3]
80301254:	e3530000 	cmp	r3, #0
80301258:	0a000006 	beq	80301278 <thr_new+0x1b4>
8030125c:	e3083210 	movw	r3, #33296	; 0x8210
80301260:	e3483031 	movt	r3, #32817	; 0x8031
80301264:	e5933000 	ldr	r3, [r3]
80301268:	e5932094 	ldr	r2, [r3, #148]	; 0x94
8030126c:	e51b3014 	ldr	r3, [fp, #-20]	; 0xffffffec
80301270:	e5832094 	str	r2, [r3, #148]	; 0x94
80301274:	ea000004 	b	8030128c <thr_new+0x1c8>
80301278:	e3073c50 	movw	r3, #31824	; 0x7c50
8030127c:	e3483031 	movt	r3, #32817	; 0x8031
80301280:	e5932000 	ldr	r2, [r3]
80301284:	e51b3014 	ldr	r3, [fp, #-20]	; 0xffffffec
80301288:	e5832094 	str	r2, [r3, #148]	; 0x94
8030128c:	e51b0014 	ldr	r0, [fp, #-20]	; 0xffffffec
80301290:	e51b101c 	ldr	r1, [fp, #-28]	; 0xffffffe4
80301294:	e51b2020 	ldr	r2, [fp, #-32]	; 0xffffffe0
80301298:	ebffff5d 	bl	80301014 <block_c>
8030129c:	e59b3004 	ldr	r3, [fp, #4]
803012a0:	e2033001 	and	r3, r3, #1
803012a4:	e3530000 	cmp	r3, #0
803012a8:	0a000003 	beq	803012bc <thr_new+0x1f8>
803012ac:	e51b3014 	ldr	r3, [fp, #-20]	; 0xffffffec
803012b0:	e3a02001 	mov	r2, #1
803012b4:	e583208c 	str	r2, [r3, #140]	; 0x8c
803012b8:	ea000002 	b	803012c8 <thr_new+0x204>
803012bc:	e51b3014 	ldr	r3, [fp, #-20]	; 0xffffffec
803012c0:	e3a02000 	mov	r2, #0
803012c4:	e583208c 	str	r2, [r3, #140]	; 0x8c
803012c8:	e3073c58 	movw	r3, #31832	; 0x7c58
803012cc:	e3483031 	movt	r3, #32817	; 0x8031
803012d0:	e5933000 	ldr	r3, [r3]
803012d4:	e50b3008 	str	r3, [fp, #-8]
803012d8:	ea000004 	b	803012f0 <thr_new+0x22c>
803012dc:	e51b3008 	ldr	r3, [fp, #-8]
803012e0:	e50b300c 	str	r3, [fp, #-12]
803012e4:	e51b3008 	ldr	r3, [fp, #-8]
803012e8:	e5933084 	ldr	r3, [r3, #132]	; 0x84
803012ec:	e50b3008 	str	r3, [fp, #-8]
803012f0:	e51b3008 	ldr	r3, [fp, #-8]
803012f4:	e3530000 	cmp	r3, #0
803012f8:	0a000005 	beq	80301314 <thr_new+0x250>
803012fc:	e51b3008 	ldr	r3, [fp, #-8]
80301300:	e59320a0 	ldr	r2, [r3, #160]	; 0xa0
80301304:	e51b3014 	ldr	r3, [fp, #-20]	; 0xffffffec
80301308:	e59330a0 	ldr	r3, [r3, #160]	; 0xa0
8030130c:	e1520003 	cmp	r2, r3
80301310:	dafffff1 	ble	803012dc <thr_new+0x218>
80301314:	e51b3014 	ldr	r3, [fp, #-20]	; 0xffffffec
80301318:	e51b2008 	ldr	r2, [fp, #-8]
8030131c:	e5832084 	str	r2, [r3, #132]	; 0x84
80301320:	e3073c58 	movw	r3, #31832	; 0x7c58
80301324:	e3483031 	movt	r3, #32817	; 0x8031
80301328:	e5933000 	ldr	r3, [r3]
8030132c:	e51b2008 	ldr	r2, [fp, #-8]
80301330:	e1520003 	cmp	r2, r3
80301334:	1a000004 	bne	8030134c <thr_new+0x288>
80301338:	e3073c58 	movw	r3, #31832	; 0x7c58
8030133c:	e3483031 	movt	r3, #32817	; 0x8031
80301340:	e51b2014 	ldr	r2, [fp, #-20]	; 0xffffffec
80301344:	e5832000 	str	r2, [r3]
80301348:	ea000002 	b	80301358 <thr_new+0x294>
8030134c:	e51b300c 	ldr	r3, [fp, #-12]
80301350:	e51b2014 	ldr	r2, [fp, #-20]	; 0xffffffec
80301354:	e5832084 	str	r2, [r3, #132]	; 0x84
80301358:	e308320c 	movw	r3, #33292	; 0x820c
8030135c:	e3483031 	movt	r3, #32817	; 0x8031
80301360:	e5933000 	ldr	r3, [r3]
80301364:	e3530000 	cmp	r3, #0
80301368:	0a000005 	beq	80301384 <thr_new+0x2c0>
8030136c:	e51b3014 	ldr	r3, [fp, #-20]	; 0xffffffec
80301370:	e28330ac 	add	r3, r3, #172	; 0xac
80301374:	e3050f5c 	movw	r0, #24412	; 0x5f5c
80301378:	e3480030 	movt	r0, #32816	; 0x8030
8030137c:	e1a01003 	mov	r1, r3
80301380:	eb000c0a 	bl	803043b0 <printf>
80301384:	e3083210 	movw	r3, #33296	; 0x8210
80301388:	e3483031 	movt	r3, #32817	; 0x8031
8030138c:	e5933000 	ldr	r3, [r3]
80301390:	e3530000 	cmp	r3, #0
80301394:	0a000004 	beq	803013ac <thr_new+0x2e8>
80301398:	e3073c4c 	movw	r3, #31820	; 0x7c4c
8030139c:	e3483031 	movt	r3, #32817	; 0x8031
803013a0:	e5933000 	ldr	r3, [r3]
803013a4:	e3530000 	cmp	r3, #0
803013a8:	1a000001 	bne	803013b4 <thr_new+0x2f0>
803013ac:	e51b3014 	ldr	r3, [fp, #-20]	; 0xffffffec
803013b0:	ea00000f 	b	803013f4 <thr_new+0x330>
803013b4:	e51b3014 	ldr	r3, [fp, #-20]	; 0xffffffec
803013b8:	e59320a0 	ldr	r2, [r3, #160]	; 0xa0
803013bc:	e3083210 	movw	r3, #33296	; 0x8210
803013c0:	e3483031 	movt	r3, #32817	; 0x8031
803013c4:	e5933000 	ldr	r3, [r3]
803013c8:	e59330a0 	ldr	r3, [r3, #160]	; 0xa0
803013cc:	e1520003 	cmp	r2, r3
803013d0:	aa000006 	bge	803013f0 <thr_new+0x32c>
803013d4:	e51b3014 	ldr	r3, [fp, #-20]	; 0xffffffec
803013d8:	e593308c 	ldr	r3, [r3, #140]	; 0x8c
803013dc:	e3530000 	cmp	r3, #0
803013e0:	1a000002 	bne	803013f0 <thr_new+0x32c>
803013e4:	e51b0014 	ldr	r0, [fp, #-20]	; 0xffffffec
803013e8:	e3a01000 	mov	r1, #0
803013ec:	eb0001f1 	bl	80301bb8 <change_thread>
803013f0:	e51b3014 	ldr	r3, [fp, #-20]	; 0xffffffec
803013f4:	e1a00003 	mov	r0, r3
803013f8:	e24bd004 	sub	sp, fp, #4
803013fc:	e8bd8800 	pop	{fp, pc}

80301400 <thr_self>:
80301400:	e52db004 	push	{fp}		; (str fp, [sp, #-4]!)
80301404:	e28db000 	add	fp, sp, #0
80301408:	e3083210 	movw	r3, #33296	; 0x8210
8030140c:	e3483031 	movt	r3, #32817	; 0x8031
80301410:	e5933000 	ldr	r3, [r3]
80301414:	e1a00003 	mov	r0, r3
80301418:	e24bd000 	sub	sp, fp, #0
8030141c:	e49db004 	pop	{fp}		; (ldr fp, [sp], #4)
80301420:	e12fff1e 	bx	lr

80301424 <cleanup_thread>:
80301424:	e92d4800 	push	{fp, lr}
80301428:	e28db004 	add	fp, sp, #4
8030142c:	e24dd010 	sub	sp, sp, #16
80301430:	e50b0010 	str	r0, [fp, #-16]
80301434:	e51b3010 	ldr	r3, [fp, #-16]
80301438:	e5932098 	ldr	r2, [r3, #152]	; 0x98
8030143c:	e51b3010 	ldr	r3, [fp, #-16]
80301440:	e593309c 	ldr	r3, [r3, #156]	; 0x9c
80301444:	e1a00002 	mov	r0, r2
80301448:	e1a01003 	mov	r1, r3
8030144c:	ebfffcea 	bl	803007fc <thr_free>
80301450:	e3073c58 	movw	r3, #31832	; 0x7c58
80301454:	e3483031 	movt	r3, #32817	; 0x8031
80301458:	e5932000 	ldr	r2, [r3]
8030145c:	e51b3010 	ldr	r3, [fp, #-16]
80301460:	e1520003 	cmp	r2, r3
80301464:	1a000005 	bne	80301480 <cleanup_thread+0x5c>
80301468:	e51b3010 	ldr	r3, [fp, #-16]
8030146c:	e5932084 	ldr	r2, [r3, #132]	; 0x84
80301470:	e3073c58 	movw	r3, #31832	; 0x7c58
80301474:	e3483031 	movt	r3, #32817	; 0x8031
80301478:	e5832000 	str	r2, [r3]
8030147c:	ea000013 	b	803014d0 <cleanup_thread+0xac>
80301480:	e3073c58 	movw	r3, #31832	; 0x7c58
80301484:	e3483031 	movt	r3, #32817	; 0x8031
80301488:	e5933000 	ldr	r3, [r3]
8030148c:	e50b3008 	str	r3, [fp, #-8]
80301490:	ea00000b 	b	803014c4 <cleanup_thread+0xa0>
80301494:	e51b3008 	ldr	r3, [fp, #-8]
80301498:	e5932084 	ldr	r2, [r3, #132]	; 0x84
8030149c:	e51b3010 	ldr	r3, [fp, #-16]
803014a0:	e1520003 	cmp	r2, r3
803014a4:	1a000003 	bne	803014b8 <cleanup_thread+0x94>
803014a8:	e51b3010 	ldr	r3, [fp, #-16]
803014ac:	e5932084 	ldr	r2, [r3, #132]	; 0x84
803014b0:	e51b3008 	ldr	r3, [fp, #-8]
803014b4:	e5832084 	str	r2, [r3, #132]	; 0x84
803014b8:	e51b3008 	ldr	r3, [fp, #-8]
803014bc:	e5933084 	ldr	r3, [r3, #132]	; 0x84
803014c0:	e50b3008 	str	r3, [fp, #-8]
803014c4:	e51b3008 	ldr	r3, [fp, #-8]
803014c8:	e3530000 	cmp	r3, #0
803014cc:	1afffff0 	bne	80301494 <cleanup_thread+0x70>
803014d0:	e3073c54 	movw	r3, #31828	; 0x7c54
803014d4:	e3483031 	movt	r3, #32817	; 0x8031
803014d8:	e5932000 	ldr	r2, [r3]
803014dc:	e51b3010 	ldr	r3, [fp, #-16]
803014e0:	e5832084 	str	r2, [r3, #132]	; 0x84
803014e4:	e3073c54 	movw	r3, #31828	; 0x7c54
803014e8:	e3483031 	movt	r3, #32817	; 0x8031
803014ec:	e51b2010 	ldr	r2, [fp, #-16]
803014f0:	e5832000 	str	r2, [r3]
803014f4:	e24bd004 	sub	sp, fp, #4
803014f8:	e8bd8800 	pop	{fp, pc}

803014fc <thr_exit>:
803014fc:	e92d4800 	push	{fp, lr}
80301500:	e28db004 	add	fp, sp, #4
80301504:	e308320c 	movw	r3, #33292	; 0x820c
80301508:	e3483031 	movt	r3, #32817	; 0x8031
8030150c:	e5933000 	ldr	r3, [r3]
80301510:	e3530000 	cmp	r3, #0
80301514:	0a00000f 	beq	80301558 <thr_exit+0x5c>
80301518:	e3083210 	movw	r3, #33296	; 0x8210
8030151c:	e3483031 	movt	r3, #32817	; 0x8031
80301520:	e5933000 	ldr	r3, [r3]
80301524:	e28330ac 	add	r3, r3, #172	; 0xac
80301528:	e3050f74 	movw	r0, #24436	; 0x5f74
8030152c:	e3480030 	movt	r0, #32816	; 0x8030
80301530:	e1a01003 	mov	r1, r3
80301534:	eb000b9d 	bl	803043b0 <printf>
80301538:	e3083210 	movw	r3, #33296	; 0x8210
8030153c:	e3483031 	movt	r3, #32817	; 0x8031
80301540:	e5933000 	ldr	r3, [r3]
80301544:	e5933080 	ldr	r3, [r3, #128]	; 0x80
80301548:	e3050f80 	movw	r0, #24448	; 0x5f80
8030154c:	e3480030 	movt	r0, #32816	; 0x8030
80301550:	e1a01003 	mov	r1, r3
80301554:	eb000b95 	bl	803043b0 <printf>
80301558:	e3083210 	movw	r3, #33296	; 0x8210
8030155c:	e3483031 	movt	r3, #32817	; 0x8031
80301560:	e5933000 	ldr	r3, [r3]
80301564:	e3a02008 	mov	r2, #8
80301568:	e583208c 	str	r2, [r3, #140]	; 0x8c
8030156c:	e3083210 	movw	r3, #33296	; 0x8210
80301570:	e3483031 	movt	r3, #32817	; 0x8031
80301574:	e5933000 	ldr	r3, [r3]
80301578:	e59330b8 	ldr	r3, [r3, #184]	; 0xb8
8030157c:	e3530000 	cmp	r3, #0
80301580:	0a00000b 	beq	803015b4 <thr_exit+0xb8>
80301584:	e3083210 	movw	r3, #33296	; 0x8210
80301588:	e3483031 	movt	r3, #32817	; 0x8031
8030158c:	e5933000 	ldr	r3, [r3]
80301590:	e59330b8 	ldr	r3, [r3, #184]	; 0xb8
80301594:	e1a00003 	mov	r0, r3
80301598:	eb0000bd 	bl	80301894 <thr_unblock>
8030159c:	e3083210 	movw	r3, #33296	; 0x8210
803015a0:	e3483031 	movt	r3, #32817	; 0x8031
803015a4:	e5933000 	ldr	r3, [r3]
803015a8:	e1a00003 	mov	r0, r3
803015ac:	ebffff9c 	bl	80301424 <cleanup_thread>
803015b0:	ea000011 	b	803015fc <thr_exit+0x100>
803015b4:	e3083210 	movw	r3, #33296	; 0x8210
803015b8:	e3483031 	movt	r3, #32817	; 0x8031
803015bc:	e5933000 	ldr	r3, [r3]
803015c0:	e59330b4 	ldr	r3, [r3, #180]	; 0xb4
803015c4:	e2033004 	and	r3, r3, #4
803015c8:	e3530000 	cmp	r3, #0
803015cc:	0a000005 	beq	803015e8 <thr_exit+0xec>
803015d0:	e3083210 	movw	r3, #33296	; 0x8210
803015d4:	e3483031 	movt	r3, #32817	; 0x8031
803015d8:	e5933000 	ldr	r3, [r3]
803015dc:	e3a02006 	mov	r2, #6
803015e0:	e583208c 	str	r2, [r3, #140]	; 0x8c
803015e4:	ea000004 	b	803015fc <thr_exit+0x100>
803015e8:	e3083210 	movw	r3, #33296	; 0x8210
803015ec:	e3483031 	movt	r3, #32817	; 0x8031
803015f0:	e5933000 	ldr	r3, [r3]
803015f4:	e1a00003 	mov	r0, r3
803015f8:	ebffff89 	bl	80301424 <cleanup_thread>
803015fc:	e3a00000 	mov	r0, #0
80301600:	eb000216 	bl	80301e60 <resched>
80301604:	e3050f94 	movw	r0, #24468	; 0x5f94
80301608:	e3480030 	movt	r0, #32816	; 0x8030
8030160c:	eb000b77 	bl	803043f0 <panic>
80301610:	e8bd8800 	pop	{fp, pc}

80301614 <thr_join>:
80301614:	e92d4800 	push	{fp, lr}
80301618:	e28db004 	add	fp, sp, #4
8030161c:	e24dd008 	sub	sp, sp, #8
80301620:	e50b0008 	str	r0, [fp, #-8]
80301624:	e51b3008 	ldr	r3, [fp, #-8]
80301628:	e593308c 	ldr	r3, [r3, #140]	; 0x8c
8030162c:	e3530008 	cmp	r3, #8
80301630:	1a000000 	bne	80301638 <thr_join+0x24>
80301634:	ea000010 	b	8030167c <thr_join+0x68>
80301638:	e51b3008 	ldr	r3, [fp, #-8]
8030163c:	e593308c 	ldr	r3, [r3, #140]	; 0x8c
80301640:	e3530006 	cmp	r3, #6
80301644:	1a000005 	bne	80301660 <thr_join+0x4c>
80301648:	e51b3008 	ldr	r3, [fp, #-8]
8030164c:	e3a02008 	mov	r2, #8
80301650:	e583208c 	str	r2, [r3, #140]	; 0x8c
80301654:	e51b0008 	ldr	r0, [fp, #-8]
80301658:	ebffff71 	bl	80301424 <cleanup_thread>
8030165c:	ea000006 	b	8030167c <thr_join+0x68>
80301660:	e3083210 	movw	r3, #33296	; 0x8210
80301664:	e3483031 	movt	r3, #32817	; 0x8031
80301668:	e5932000 	ldr	r2, [r3]
8030166c:	e51b3008 	ldr	r3, [fp, #-8]
80301670:	e58320b8 	str	r2, [r3, #184]	; 0xb8
80301674:	e3a00005 	mov	r0, #5
80301678:	eb000016 	bl	803016d8 <thr_block>
8030167c:	e24bd004 	sub	sp, fp, #4
80301680:	e8bd8800 	pop	{fp, pc}

80301684 <thr_kill>:
80301684:	e92d4800 	push	{fp, lr}
80301688:	e28db004 	add	fp, sp, #4
8030168c:	e24dd008 	sub	sp, sp, #8
80301690:	e50b0008 	str	r0, [fp, #-8]
80301694:	e3083210 	movw	r3, #33296	; 0x8210
80301698:	e3483031 	movt	r3, #32817	; 0x8031
8030169c:	e5933000 	ldr	r3, [r3]
803016a0:	e51b2008 	ldr	r2, [fp, #-8]
803016a4:	e1520003 	cmp	r2, r3
803016a8:	1a000000 	bne	803016b0 <thr_kill+0x2c>
803016ac:	ebffff92 	bl	803014fc <thr_exit>
803016b0:	e51b0008 	ldr	r0, [fp, #-8]
803016b4:	e30114fc 	movw	r1, #5372	; 0x14fc
803016b8:	e3481030 	movt	r1, #32816	; 0x8030
803016bc:	e3a02000 	mov	r2, #0
803016c0:	ebfffe53 	bl	80301014 <block_c>
803016c4:	e51b3008 	ldr	r3, [fp, #-8]
803016c8:	e3a02000 	mov	r2, #0
803016cc:	e583208c 	str	r2, [r3, #140]	; 0x8c
803016d0:	e24bd004 	sub	sp, fp, #4
803016d4:	e8bd8800 	pop	{fp, pc}

803016d8 <thr_block>:
803016d8:	e92d4800 	push	{fp, lr}
803016dc:	e28db004 	add	fp, sp, #4
803016e0:	e24dd008 	sub	sp, sp, #8
803016e4:	e50b0008 	str	r0, [fp, #-8]
803016e8:	ebfffa5a 	bl	80300058 <cpu_enter>
803016ec:	e51b3008 	ldr	r3, [fp, #-8]
803016f0:	e3530000 	cmp	r3, #0
803016f4:	1a000001 	bne	80301700 <thr_block+0x28>
803016f8:	ebfffa5a 	bl	80300068 <cpu_leave>
803016fc:	ea000014 	b	80301754 <thr_block+0x7c>
80301700:	e308320c 	movw	r3, #33292	; 0x820c
80301704:	e3483031 	movt	r3, #32817	; 0x8031
80301708:	e5933000 	ldr	r3, [r3]
8030170c:	e3530000 	cmp	r3, #0
80301710:	0a000008 	beq	80301738 <thr_block+0x60>
80301714:	e3083210 	movw	r3, #33296	; 0x8210
80301718:	e3483031 	movt	r3, #32817	; 0x8031
8030171c:	e5933000 	ldr	r3, [r3]
80301720:	e28330ac 	add	r3, r3, #172	; 0xac
80301724:	e3050fa8 	movw	r0, #24488	; 0x5fa8
80301728:	e3480030 	movt	r0, #32816	; 0x8030
8030172c:	e51b1008 	ldr	r1, [fp, #-8]
80301730:	e1a02003 	mov	r2, r3
80301734:	eb000b1d 	bl	803043b0 <printf>
80301738:	e3083210 	movw	r3, #33296	; 0x8210
8030173c:	e3483031 	movt	r3, #32817	; 0x8031
80301740:	e5933000 	ldr	r3, [r3]
80301744:	e51b2008 	ldr	r2, [fp, #-8]
80301748:	e583208c 	str	r2, [r3, #140]	; 0x8c
8030174c:	e3a00000 	mov	r0, #0
80301750:	eb0001c2 	bl	80301e60 <resched>
80301754:	e24bd004 	sub	sp, fp, #4
80301758:	e8bd8800 	pop	{fp, pc}

8030175c <thr_block_c>:
8030175c:	e92d4800 	push	{fp, lr}
80301760:	e28db004 	add	fp, sp, #4
80301764:	e24dd010 	sub	sp, sp, #16
80301768:	e50b0008 	str	r0, [fp, #-8]
8030176c:	e50b100c 	str	r1, [fp, #-12]
80301770:	e50b2010 	str	r2, [fp, #-16]
80301774:	e51b3008 	ldr	r3, [fp, #-8]
80301778:	e3530000 	cmp	r3, #0
8030177c:	1a000000 	bne	80301784 <thr_block_c+0x28>
80301780:	ea000014 	b	803017d8 <thr_block_c+0x7c>
80301784:	ebfffa33 	bl	80300058 <cpu_enter>
80301788:	e3083210 	movw	r3, #33296	; 0x8210
8030178c:	e3483031 	movt	r3, #32817	; 0x8031
80301790:	e5933000 	ldr	r3, [r3]
80301794:	e51b2008 	ldr	r2, [fp, #-8]
80301798:	e583208c 	str	r2, [r3, #140]	; 0x8c
8030179c:	e3083210 	movw	r3, #33296	; 0x8210
803017a0:	e3483031 	movt	r3, #32817	; 0x8031
803017a4:	e5933000 	ldr	r3, [r3]
803017a8:	e1a00003 	mov	r0, r3
803017ac:	e51b100c 	ldr	r1, [fp, #-12]
803017b0:	e51b2010 	ldr	r2, [fp, #-16]
803017b4:	ebfffe16 	bl	80301014 <block_c>
803017b8:	e3a00002 	mov	r0, #2
803017bc:	eb0001a7 	bl	80301e60 <resched>
803017c0:	e3083210 	movw	r3, #33296	; 0x8210
803017c4:	e3483031 	movt	r3, #32817	; 0x8031
803017c8:	e5933000 	ldr	r3, [r3]
803017cc:	e5933040 	ldr	r3, [r3, #64]	; 0x40
803017d0:	e1a00003 	mov	r0, r3
803017d4:	ebfffa27 	bl	80300078 <resume_c>
803017d8:	e24bd004 	sub	sp, fp, #4
803017dc:	e8bd8800 	pop	{fp, pc}

803017e0 <thr_block_q>:
803017e0:	e92d4800 	push	{fp, lr}
803017e4:	e28db004 	add	fp, sp, #4
803017e8:	e24dd008 	sub	sp, sp, #8
803017ec:	e50b0008 	str	r0, [fp, #-8]
803017f0:	e51b3008 	ldr	r3, [fp, #-8]
803017f4:	e3530000 	cmp	r3, #0
803017f8:	1a000000 	bne	80301800 <thr_block_q+0x20>
803017fc:	ea000016 	b	8030185c <thr_block_q+0x7c>
80301800:	ebfffa14 	bl	80300058 <cpu_enter>
80301804:	e3083210 	movw	r3, #33296	; 0x8210
80301808:	e3483031 	movt	r3, #32817	; 0x8031
8030180c:	e5933000 	ldr	r3, [r3]
80301810:	e51b2008 	ldr	r2, [fp, #-8]
80301814:	e583208c 	str	r2, [r3, #140]	; 0x8c
80301818:	e3083210 	movw	r3, #33296	; 0x8210
8030181c:	e3483031 	movt	r3, #32817	; 0x8031
80301820:	e5933000 	ldr	r3, [r3]
80301824:	e5933090 	ldr	r3, [r3, #144]	; 0x90
80301828:	e3530002 	cmp	r3, #2
8030182c:	0a000002 	beq	8030183c <thr_block_q+0x5c>
80301830:	e3050fc0 	movw	r0, #24512	; 0x5fc0
80301834:	e3480030 	movt	r0, #32816	; 0x8030
80301838:	eb000aec 	bl	803043f0 <panic>
8030183c:	e3a00002 	mov	r0, #2
80301840:	eb000186 	bl	80301e60 <resched>
80301844:	e3083210 	movw	r3, #33296	; 0x8210
80301848:	e3483031 	movt	r3, #32817	; 0x8031
8030184c:	e5933000 	ldr	r3, [r3]
80301850:	e5933040 	ldr	r3, [r3, #64]	; 0x40
80301854:	e1a00003 	mov	r0, r3
80301858:	ebfffa06 	bl	80300078 <resume_c>
8030185c:	e24bd004 	sub	sp, fp, #4
80301860:	e8bd8800 	pop	{fp, pc}

80301864 <thr_block_m>:
80301864:	e92d4800 	push	{fp, lr}
80301868:	e28db004 	add	fp, sp, #4
8030186c:	e24dd008 	sub	sp, sp, #8
80301870:	e50b0008 	str	r0, [fp, #-8]
80301874:	e50b100c 	str	r1, [fp, #-12]
80301878:	ebfff9f6 	bl	80300058 <cpu_enter>
8030187c:	e51b000c 	ldr	r0, [fp, #-12]
80301880:	eb0002b0 	bl	80302348 <sem_unblock>
80301884:	e51b0008 	ldr	r0, [fp, #-8]
80301888:	ebffff92 	bl	803016d8 <thr_block>
8030188c:	e24bd004 	sub	sp, fp, #4
80301890:	e8bd8800 	pop	{fp, pc}

80301894 <thr_unblock>:
80301894:	e92d4800 	push	{fp, lr}
80301898:	e28db004 	add	fp, sp, #4
8030189c:	e24dd008 	sub	sp, sp, #8
803018a0:	e50b0008 	str	r0, [fp, #-8]
803018a4:	e308320c 	movw	r3, #33292	; 0x820c
803018a8:	e3483031 	movt	r3, #32817	; 0x8031
803018ac:	e5933000 	ldr	r3, [r3]
803018b0:	e3530000 	cmp	r3, #0
803018b4:	0a000011 	beq	80301900 <thr_unblock+0x6c>
803018b8:	e3083204 	movw	r3, #33284	; 0x8204
803018bc:	e3483031 	movt	r3, #32817	; 0x8031
803018c0:	e5933000 	ldr	r3, [r3]
803018c4:	e3530000 	cmp	r3, #0
803018c8:	0a000006 	beq	803018e8 <thr_unblock+0x54>
803018cc:	e51b3008 	ldr	r3, [fp, #-8]
803018d0:	e28330ac 	add	r3, r3, #172	; 0xac
803018d4:	e3050fcc 	movw	r0, #24524	; 0x5fcc
803018d8:	e3480030 	movt	r0, #32816	; 0x8030
803018dc:	e1a01003 	mov	r1, r3
803018e0:	eb000ab2 	bl	803043b0 <printf>
803018e4:	ea000005 	b	80301900 <thr_unblock+0x6c>
803018e8:	e51b3008 	ldr	r3, [fp, #-8]
803018ec:	e28330ac 	add	r3, r3, #172	; 0xac
803018f0:	e3050fe4 	movw	r0, #24548	; 0x5fe4
803018f4:	e3480030 	movt	r0, #32816	; 0x8030
803018f8:	e1a01003 	mov	r1, r3
803018fc:	eb000aab 	bl	803043b0 <printf>
80301900:	e51b3008 	ldr	r3, [fp, #-8]
80301904:	e593308c 	ldr	r3, [r3, #140]	; 0x8c
80301908:	e3530000 	cmp	r3, #0
8030190c:	1a000002 	bne	8030191c <thr_unblock+0x88>
80301910:	e3050ff8 	movw	r0, #24568	; 0x5ff8
80301914:	e3480030 	movt	r0, #32816	; 0x8030
80301918:	eb000ab4 	bl	803043f0 <panic>
8030191c:	e51b3008 	ldr	r3, [fp, #-8]
80301920:	e3a02000 	mov	r2, #0
80301924:	e583208c 	str	r2, [r3, #140]	; 0x8c
80301928:	e3083204 	movw	r3, #33284	; 0x8204
8030192c:	e3483031 	movt	r3, #32817	; 0x8031
80301930:	e5933000 	ldr	r3, [r3]
80301934:	e3530000 	cmp	r3, #0
80301938:	0a00001f 	beq	803019bc <thr_unblock+0x128>
8030193c:	e3083210 	movw	r3, #33296	; 0x8210
80301940:	e3483031 	movt	r3, #32817	; 0x8031
80301944:	e5933000 	ldr	r3, [r3]
80301948:	e593308c 	ldr	r3, [r3, #140]	; 0x8c
8030194c:	e3530000 	cmp	r3, #0
80301950:	1a000007 	bne	80301974 <thr_unblock+0xe0>
80301954:	e51b3008 	ldr	r3, [fp, #-8]
80301958:	e59320a0 	ldr	r2, [r3, #160]	; 0xa0
8030195c:	e3083210 	movw	r3, #33296	; 0x8210
80301960:	e3483031 	movt	r3, #32817	; 0x8031
80301964:	e5933000 	ldr	r3, [r3]
80301968:	e59330a0 	ldr	r3, [r3, #160]	; 0xa0
8030196c:	e1520003 	cmp	r2, r3
80301970:	aa00001c 	bge	803019e8 <thr_unblock+0x154>
80301974:	e3083208 	movw	r3, #33288	; 0x8208
80301978:	e3483031 	movt	r3, #32817	; 0x8031
8030197c:	e5933000 	ldr	r3, [r3]
80301980:	e3530000 	cmp	r3, #0
80301984:	0a000007 	beq	803019a8 <thr_unblock+0x114>
80301988:	e51b3008 	ldr	r3, [fp, #-8]
8030198c:	e59320a0 	ldr	r2, [r3, #160]	; 0xa0
80301990:	e3083208 	movw	r3, #33288	; 0x8208
80301994:	e3483031 	movt	r3, #32817	; 0x8031
80301998:	e5933000 	ldr	r3, [r3]
8030199c:	e59330a0 	ldr	r3, [r3, #160]	; 0xa0
803019a0:	e1520003 	cmp	r2, r3
803019a4:	aa00000f 	bge	803019e8 <thr_unblock+0x154>
803019a8:	e3083208 	movw	r3, #33288	; 0x8208
803019ac:	e3483031 	movt	r3, #32817	; 0x8031
803019b0:	e51b2008 	ldr	r2, [fp, #-8]
803019b4:	e5832000 	str	r2, [r3]
803019b8:	ea00000a 	b	803019e8 <thr_unblock+0x154>
803019bc:	e51b3008 	ldr	r3, [fp, #-8]
803019c0:	e59320a0 	ldr	r2, [r3, #160]	; 0xa0
803019c4:	e3083210 	movw	r3, #33296	; 0x8210
803019c8:	e3483031 	movt	r3, #32817	; 0x8031
803019cc:	e5933000 	ldr	r3, [r3]
803019d0:	e59330a0 	ldr	r3, [r3, #160]	; 0xa0
803019d4:	e1520003 	cmp	r2, r3
803019d8:	aa000002 	bge	803019e8 <thr_unblock+0x154>
803019dc:	e51b0008 	ldr	r0, [fp, #-8]
803019e0:	e3a01000 	mov	r1, #0
803019e4:	eb000073 	bl	80301bb8 <change_thread>
803019e8:	e24bd004 	sub	sp, fp, #4
803019ec:	e8bd8800 	pop	{fp, pc}

803019f0 <thr_delay>:
803019f0:	e92d4800 	push	{fp, lr}
803019f4:	e28db004 	add	fp, sp, #4
803019f8:	e24dd008 	sub	sp, sp, #8
803019fc:	e50b0008 	str	r0, [fp, #-8]
80301a00:	e308320c 	movw	r3, #33292	; 0x820c
80301a04:	e3483031 	movt	r3, #32817	; 0x8031
80301a08:	e5933000 	ldr	r3, [r3]
80301a0c:	e3530000 	cmp	r3, #0
80301a10:	0a000008 	beq	80301a38 <thr_delay+0x48>
80301a14:	e3083210 	movw	r3, #33296	; 0x8210
80301a18:	e3483031 	movt	r3, #32817	; 0x8031
80301a1c:	e5933000 	ldr	r3, [r3]
80301a20:	e28330ac 	add	r3, r3, #172	; 0xac
80301a24:	e3060010 	movw	r0, #24592	; 0x6010
80301a28:	e3480030 	movt	r0, #32816	; 0x8030
80301a2c:	e51b1008 	ldr	r1, [fp, #-8]
80301a30:	e1a02003 	mov	r2, r3
80301a34:	eb000a5d 	bl	803043b0 <printf>
80301a38:	e51b3008 	ldr	r3, [fp, #-8]
80301a3c:	e3530000 	cmp	r3, #0
80301a40:	da000008 	ble	80301a68 <thr_delay+0x78>
80301a44:	ebfff983 	bl	80300058 <cpu_enter>
80301a48:	e3083210 	movw	r3, #33296	; 0x8210
80301a4c:	e3483031 	movt	r3, #32817	; 0x8031
80301a50:	e5933000 	ldr	r3, [r3]
80301a54:	e1a00003 	mov	r0, r3
80301a58:	e51b1008 	ldr	r1, [fp, #-8]
80301a5c:	ebfffb15 	bl	803006b8 <timer_add_wait>
80301a60:	e3a00003 	mov	r0, #3
80301a64:	ebffff1b 	bl	803016d8 <thr_block>
80301a68:	e24bd004 	sub	sp, fp, #4
80301a6c:	e8bd8800 	pop	{fp, pc}

80301a70 <thr_delay_c>:
80301a70:	e92d4800 	push	{fp, lr}
80301a74:	e28db004 	add	fp, sp, #4
80301a78:	e24dd010 	sub	sp, sp, #16
80301a7c:	e50b0008 	str	r0, [fp, #-8]
80301a80:	e50b100c 	str	r1, [fp, #-12]
80301a84:	e50b2010 	str	r2, [fp, #-16]
80301a88:	e308320c 	movw	r3, #33292	; 0x820c
80301a8c:	e3483031 	movt	r3, #32817	; 0x8031
80301a90:	e5933000 	ldr	r3, [r3]
80301a94:	e3530000 	cmp	r3, #0
80301a98:	0a000008 	beq	80301ac0 <thr_delay_c+0x50>
80301a9c:	e3083210 	movw	r3, #33296	; 0x8210
80301aa0:	e3483031 	movt	r3, #32817	; 0x8031
80301aa4:	e5933000 	ldr	r3, [r3]
80301aa8:	e28330ac 	add	r3, r3, #172	; 0xac
80301aac:	e3060028 	movw	r0, #24616	; 0x6028
80301ab0:	e3480030 	movt	r0, #32816	; 0x8030
80301ab4:	e51b1008 	ldr	r1, [fp, #-8]
80301ab8:	e1a02003 	mov	r2, r3
80301abc:	eb000a3b 	bl	803043b0 <printf>
80301ac0:	e51b3008 	ldr	r3, [fp, #-8]
80301ac4:	e3530000 	cmp	r3, #0
80301ac8:	da00000a 	ble	80301af8 <thr_delay_c+0x88>
80301acc:	ebfff961 	bl	80300058 <cpu_enter>
80301ad0:	e3083210 	movw	r3, #33296	; 0x8210
80301ad4:	e3483031 	movt	r3, #32817	; 0x8031
80301ad8:	e5933000 	ldr	r3, [r3]
80301adc:	e1a00003 	mov	r0, r3
80301ae0:	e51b1008 	ldr	r1, [fp, #-8]
80301ae4:	ebfffaf3 	bl	803006b8 <timer_add_wait>
80301ae8:	e3a00003 	mov	r0, #3
80301aec:	e51b100c 	ldr	r1, [fp, #-12]
80301af0:	e51b2010 	ldr	r2, [fp, #-16]
80301af4:	ebffff18 	bl	8030175c <thr_block_c>
80301af8:	e24bd004 	sub	sp, fp, #4
80301afc:	e8bd8800 	pop	{fp, pc}

80301b00 <thr_delay_q>:
80301b00:	e92d4800 	push	{fp, lr}
80301b04:	e28db004 	add	fp, sp, #4
80301b08:	e24dd008 	sub	sp, sp, #8
80301b0c:	e50b0008 	str	r0, [fp, #-8]
80301b10:	e308320c 	movw	r3, #33292	; 0x820c
80301b14:	e3483031 	movt	r3, #32817	; 0x8031
80301b18:	e5933000 	ldr	r3, [r3]
80301b1c:	e3530000 	cmp	r3, #0
80301b20:	0a000008 	beq	80301b48 <thr_delay_q+0x48>
80301b24:	e3083210 	movw	r3, #33296	; 0x8210
80301b28:	e3483031 	movt	r3, #32817	; 0x8031
80301b2c:	e5933000 	ldr	r3, [r3]
80301b30:	e28330ac 	add	r3, r3, #172	; 0xac
80301b34:	e3060040 	movw	r0, #24640	; 0x6040
80301b38:	e3480030 	movt	r0, #32816	; 0x8030
80301b3c:	e51b1008 	ldr	r1, [fp, #-8]
80301b40:	e1a02003 	mov	r2, r3
80301b44:	eb000a19 	bl	803043b0 <printf>
80301b48:	e51b3008 	ldr	r3, [fp, #-8]
80301b4c:	e3530000 	cmp	r3, #0
80301b50:	da000008 	ble	80301b78 <thr_delay_q+0x78>
80301b54:	ebfff93f 	bl	80300058 <cpu_enter>
80301b58:	e3083210 	movw	r3, #33296	; 0x8210
80301b5c:	e3483031 	movt	r3, #32817	; 0x8031
80301b60:	e5933000 	ldr	r3, [r3]
80301b64:	e1a00003 	mov	r0, r3
80301b68:	e51b1008 	ldr	r1, [fp, #-8]
80301b6c:	ebfffad1 	bl	803006b8 <timer_add_wait>
80301b70:	e3a00003 	mov	r0, #3
80301b74:	ebffff19 	bl	803017e0 <thr_block_q>
80301b78:	e24bd004 	sub	sp, fp, #4
80301b7c:	e8bd8800 	pop	{fp, pc}

80301b80 <thr_yield>:
80301b80:	e92d4800 	push	{fp, lr}
80301b84:	e28db004 	add	fp, sp, #4
80301b88:	e3a00001 	mov	r0, #1
80301b8c:	eb0000b3 	bl	80301e60 <resched>
80301b90:	e8bd8800 	pop	{fp, pc}

80301b94 <change_thread_int>:
80301b94:	e92d4800 	push	{fp, lr}
80301b98:	e28db004 	add	fp, sp, #4
80301b9c:	e24dd008 	sub	sp, sp, #8
80301ba0:	e50b0008 	str	r0, [fp, #-8]
80301ba4:	e51b0008 	ldr	r0, [fp, #-8]
80301ba8:	e3a01004 	mov	r1, #4
80301bac:	eb000001 	bl	80301bb8 <change_thread>
80301bb0:	e24bd004 	sub	sp, fp, #4
80301bb4:	e8bd8800 	pop	{fp, pc}

80301bb8 <change_thread>:
80301bb8:	e92d4800 	push	{fp, lr}
80301bbc:	e28db004 	add	fp, sp, #4
80301bc0:	e24dd018 	sub	sp, sp, #24
80301bc4:	e50b0010 	str	r0, [fp, #-16]
80301bc8:	e50b1014 	str	r1, [fp, #-20]	; 0xffffffec
80301bcc:	e308320c 	movw	r3, #33292	; 0x820c
80301bd0:	e3483031 	movt	r3, #32817	; 0x8031
80301bd4:	e5933000 	ldr	r3, [r3]
80301bd8:	e3530000 	cmp	r3, #0
80301bdc:	0a000036 	beq	80301cbc <change_thread+0x104>
80301be0:	e51b3010 	ldr	r3, [fp, #-16]
80301be4:	e5933090 	ldr	r3, [r3, #144]	; 0x90
80301be8:	e3530001 	cmp	r3, #1
80301bec:	0a000008 	beq	80301c14 <change_thread+0x5c>
80301bf0:	e3530001 	cmp	r3, #1
80301bf4:	3a000002 	bcc	80301c04 <change_thread+0x4c>
80301bf8:	e3530002 	cmp	r3, #2
80301bfc:	0a000008 	beq	80301c24 <change_thread+0x6c>
80301c00:	ea00000b 	b	80301c34 <change_thread+0x7c>
80301c04:	e3063058 	movw	r3, #24664	; 0x6058
80301c08:	e3483030 	movt	r3, #32816	; 0x8030
80301c0c:	e50b3008 	str	r3, [fp, #-8]
80301c10:	ea00000b 	b	80301c44 <change_thread+0x8c>
80301c14:	e306305c 	movw	r3, #24668	; 0x605c
80301c18:	e3483030 	movt	r3, #32816	; 0x8030
80301c1c:	e50b3008 	str	r3, [fp, #-8]
80301c20:	ea000007 	b	80301c44 <change_thread+0x8c>
80301c24:	e3063060 	movw	r3, #24672	; 0x6060
80301c28:	e3483030 	movt	r3, #32816	; 0x8030
80301c2c:	e50b3008 	str	r3, [fp, #-8]
80301c30:	ea000003 	b	80301c44 <change_thread+0x8c>
80301c34:	e3063064 	movw	r3, #24676	; 0x6064
80301c38:	e3483030 	movt	r3, #32816	; 0x8030
80301c3c:	e50b3008 	str	r3, [fp, #-8]
80301c40:	e1a00000 	nop			; (mov r0, r0)
80301c44:	e3083204 	movw	r3, #33284	; 0x8204
80301c48:	e3483031 	movt	r3, #32817	; 0x8031
80301c4c:	e5933000 	ldr	r3, [r3]
80301c50:	e3530000 	cmp	r3, #0
80301c54:	0a00000c 	beq	80301c8c <change_thread+0xd4>
80301c58:	e3083210 	movw	r3, #33296	; 0x8210
80301c5c:	e3483031 	movt	r3, #32817	; 0x8031
80301c60:	e5933000 	ldr	r3, [r3]
80301c64:	e28310ac 	add	r1, r3, #172	; 0xac
80301c68:	e51b3010 	ldr	r3, [fp, #-16]
80301c6c:	e28320ac 	add	r2, r3, #172	; 0xac
80301c70:	e51b3014 	ldr	r3, [fp, #-20]	; 0xffffffec
80301c74:	e58d3000 	str	r3, [sp]
80301c78:	e3060068 	movw	r0, #24680	; 0x6068
80301c7c:	e3480030 	movt	r0, #32816	; 0x8030
80301c80:	e51b3008 	ldr	r3, [fp, #-8]
80301c84:	eb0009c9 	bl	803043b0 <printf>
80301c88:	ea00000b 	b	80301cbc <change_thread+0x104>
80301c8c:	e3083210 	movw	r3, #33296	; 0x8210
80301c90:	e3483031 	movt	r3, #32817	; 0x8031
80301c94:	e5933000 	ldr	r3, [r3]
80301c98:	e28310ac 	add	r1, r3, #172	; 0xac
80301c9c:	e51b3010 	ldr	r3, [fp, #-16]
80301ca0:	e28320ac 	add	r2, r3, #172	; 0xac
80301ca4:	e51b3014 	ldr	r3, [fp, #-20]	; 0xffffffec
80301ca8:	e58d3000 	str	r3, [sp]
80301cac:	e3060098 	movw	r0, #24728	; 0x6098
80301cb0:	e3480030 	movt	r0, #32816	; 0x8030
80301cb4:	e51b3008 	ldr	r3, [fp, #-8]
80301cb8:	eb0009bc 	bl	803043b0 <printf>
80301cbc:	e51b3010 	ldr	r3, [fp, #-16]
80301cc0:	e3530000 	cmp	r3, #0
80301cc4:	1a000002 	bne	80301cd4 <change_thread+0x11c>
80301cc8:	e30600c0 	movw	r0, #24768	; 0x60c0
80301ccc:	e3480030 	movt	r0, #32816	; 0x8030
80301cd0:	eb0009c6 	bl	803043f0 <panic>
80301cd4:	e3083210 	movw	r3, #33296	; 0x8210
80301cd8:	e3483031 	movt	r3, #32817	; 0x8031
80301cdc:	e5933000 	ldr	r3, [r3]
80301ce0:	e51b2010 	ldr	r2, [fp, #-16]
80301ce4:	e1520003 	cmp	r2, r3
80301ce8:	1a000002 	bne	80301cf8 <change_thread+0x140>
80301cec:	e30600d4 	movw	r0, #24788	; 0x60d4
80301cf0:	e3480030 	movt	r0, #32816	; 0x8030
80301cf4:	eb0009bd 	bl	803043f0 <panic>
80301cf8:	e51b3014 	ldr	r3, [fp, #-20]	; 0xffffffec
80301cfc:	e2033004 	and	r3, r3, #4
80301d00:	e3530000 	cmp	r3, #0
80301d04:	1a000015 	bne	80301d60 <change_thread+0x1a8>
80301d08:	e51b3014 	ldr	r3, [fp, #-20]	; 0xffffffec
80301d0c:	e2033002 	and	r3, r3, #2
80301d10:	e3530000 	cmp	r3, #0
80301d14:	1a000011 	bne	80301d60 <change_thread+0x1a8>
80301d18:	e3083210 	movw	r3, #33296	; 0x8210
80301d1c:	e3483031 	movt	r3, #32817	; 0x8031
80301d20:	e5933000 	ldr	r3, [r3]
80301d24:	e3a02000 	mov	r2, #0
80301d28:	e5832090 	str	r2, [r3, #144]	; 0x90
80301d2c:	e3083210 	movw	r3, #33296	; 0x8210
80301d30:	e3483031 	movt	r3, #32817	; 0x8031
80301d34:	e5933000 	ldr	r3, [r3]
80301d38:	e2833040 	add	r3, r3, #64	; 0x40
80301d3c:	e1a00003 	mov	r0, r3
80301d40:	ebfff8cf 	bl	80300084 <save_j>
80301d44:	e1a03000 	mov	r3, r0
80301d48:	e3530000 	cmp	r3, #0
80301d4c:	0a000003 	beq	80301d60 <change_thread+0x1a8>
80301d50:	e30600ec 	movw	r0, #24812	; 0x60ec
80301d54:	e3480030 	movt	r0, #32816	; 0x8030
80301d58:	eb000994 	bl	803043b0 <printf>
80301d5c:	ea00003d 	b	80301e58 <change_thread+0x2a0>
80301d60:	e51b3014 	ldr	r3, [fp, #-20]	; 0xffffffec
80301d64:	e2033004 	and	r3, r3, #4
80301d68:	e3530000 	cmp	r3, #0
80301d6c:	0a000004 	beq	80301d84 <change_thread+0x1cc>
80301d70:	e3083210 	movw	r3, #33296	; 0x8210
80301d74:	e3483031 	movt	r3, #32817	; 0x8031
80301d78:	e5933000 	ldr	r3, [r3]
80301d7c:	e3a02001 	mov	r2, #1
80301d80:	e5832090 	str	r2, [r3, #144]	; 0x90
80301d84:	e3083210 	movw	r3, #33296	; 0x8210
80301d88:	e3483031 	movt	r3, #32817	; 0x8031
80301d8c:	e5933000 	ldr	r3, [r3]
80301d90:	e3a02000 	mov	r2, #0
80301d94:	e58320bc 	str	r2, [r3, #188]	; 0xbc
80301d98:	e3083210 	movw	r3, #33296	; 0x8210
80301d9c:	e3483031 	movt	r3, #32817	; 0x8031
80301da0:	e51b2010 	ldr	r2, [fp, #-16]
80301da4:	e5832000 	str	r2, [r3]
80301da8:	e3083210 	movw	r3, #33296	; 0x8210
80301dac:	e3483031 	movt	r3, #32817	; 0x8031
80301db0:	e5933000 	ldr	r3, [r3]
80301db4:	e5933090 	ldr	r3, [r3, #144]	; 0x90
80301db8:	e3530000 	cmp	r3, #0
80301dbc:	0a000002 	beq	80301dcc <change_thread+0x214>
80301dc0:	e3530001 	cmp	r3, #1
80301dc4:	0a00000b 	beq	80301df8 <change_thread+0x240>
80301dc8:	ea000014 	b	80301e20 <change_thread+0x268>
80301dcc:	e3060104 	movw	r0, #24836	; 0x6104
80301dd0:	e3480030 	movt	r0, #32816	; 0x8030
80301dd4:	eb000975 	bl	803043b0 <printf>
80301dd8:	e51b3010 	ldr	r3, [fp, #-16]
80301ddc:	e2833040 	add	r3, r3, #64	; 0x40
80301de0:	e1a00003 	mov	r0, r3
80301de4:	ebfff8a5 	bl	80300080 <resume_j>
80301de8:	e306011c 	movw	r0, #24860	; 0x611c
80301dec:	e3480030 	movt	r0, #32816	; 0x8030
80301df0:	eb00097e 	bl	803043f0 <panic>
80301df4:	ea000017 	b	80301e58 <change_thread+0x2a0>
80301df8:	e3060134 	movw	r0, #24884	; 0x6134
80301dfc:	e3480030 	movt	r0, #32816	; 0x8030
80301e00:	eb00096a 	bl	803043b0 <printf>
80301e04:	e51b3010 	ldr	r3, [fp, #-16]
80301e08:	e1a00003 	mov	r0, r3
80301e0c:	ebfff89a 	bl	8030007c <resume_i>
80301e10:	e306014c 	movw	r0, #24908	; 0x614c
80301e14:	e3480030 	movt	r0, #32816	; 0x8030
80301e18:	eb000974 	bl	803043f0 <panic>
80301e1c:	ea00000d 	b	80301e58 <change_thread+0x2a0>
80301e20:	e51b3010 	ldr	r3, [fp, #-16]
80301e24:	e5933040 	ldr	r3, [r3, #64]	; 0x40
80301e28:	e3060164 	movw	r0, #24932	; 0x6164
80301e2c:	e3480030 	movt	r0, #32816	; 0x8030
80301e30:	e1a01003 	mov	r1, r3
80301e34:	eb00095d 	bl	803043b0 <printf>
80301e38:	e51b3010 	ldr	r3, [fp, #-16]
80301e3c:	e5933040 	ldr	r3, [r3, #64]	; 0x40
80301e40:	e1a00003 	mov	r0, r3
80301e44:	ebfff88b 	bl	80300078 <resume_c>
80301e48:	e3060184 	movw	r0, #24964	; 0x6184
80301e4c:	e3480030 	movt	r0, #32816	; 0x8030
80301e50:	eb000966 	bl	803043f0 <panic>
80301e54:	e1a00000 	nop			; (mov r0, r0)
80301e58:	e24bd004 	sub	sp, fp, #4
80301e5c:	e8bd8800 	pop	{fp, pc}

80301e60 <resched>:
80301e60:	e92d4800 	push	{fp, lr}
80301e64:	e28db004 	add	fp, sp, #4
80301e68:	e24dd018 	sub	sp, sp, #24
80301e6c:	e50b0018 	str	r0, [fp, #-24]	; 0xffffffe8
80301e70:	e3a03000 	mov	r3, #0
80301e74:	e50b300c 	str	r3, [fp, #-12]
80301e78:	e30033e9 	movw	r3, #1001	; 0x3e9
80301e7c:	e50b3010 	str	r3, [fp, #-16]
80301e80:	e308320c 	movw	r3, #33292	; 0x820c
80301e84:	e3483031 	movt	r3, #32817	; 0x8031
80301e88:	e5933000 	ldr	r3, [r3]
80301e8c:	e3530000 	cmp	r3, #0
80301e90:	0a000010 	beq	80301ed8 <resched+0x78>
80301e94:	e3083210 	movw	r3, #33296	; 0x8210
80301e98:	e3483031 	movt	r3, #32817	; 0x8031
80301e9c:	e5933000 	ldr	r3, [r3]
80301ea0:	e28330ac 	add	r3, r3, #172	; 0xac
80301ea4:	e306019c 	movw	r0, #24988	; 0x619c
80301ea8:	e3480030 	movt	r0, #32816	; 0x8030
80301eac:	e1a01003 	mov	r1, r3
80301eb0:	eb00093e 	bl	803043b0 <printf>
80301eb4:	e3083210 	movw	r3, #33296	; 0x8210
80301eb8:	e3483031 	movt	r3, #32817	; 0x8031
80301ebc:	e5933000 	ldr	r3, [r3]
80301ec0:	e1a00003 	mov	r0, r3
80301ec4:	ebfffb2d 	bl	80300b80 <thr_show_state>
80301ec8:	e30601bc 	movw	r0, #25020	; 0x61bc
80301ecc:	e3480030 	movt	r0, #32816	; 0x8030
80301ed0:	e51b1018 	ldr	r1, [fp, #-24]	; 0xffffffe8
80301ed4:	eb000935 	bl	803043b0 <printf>
80301ed8:	e3083210 	movw	r3, #33296	; 0x8210
80301edc:	e3483031 	movt	r3, #32817	; 0x8031
80301ee0:	e5933000 	ldr	r3, [r3]
80301ee4:	e3530000 	cmp	r3, #0
80301ee8:	1a000002 	bne	80301ef8 <resched+0x98>
80301eec:	e30601c8 	movw	r0, #25032	; 0x61c8
80301ef0:	e3480030 	movt	r0, #32816	; 0x8030
80301ef4:	eb00093d 	bl	803043f0 <panic>
80301ef8:	ebfff856 	bl	80300058 <cpu_enter>
80301efc:	e3073c58 	movw	r3, #31832	; 0x7c58
80301f00:	e3483031 	movt	r3, #32817	; 0x8031
80301f04:	e5933000 	ldr	r3, [r3]
80301f08:	e50b3008 	str	r3, [fp, #-8]
80301f0c:	ea00001d 	b	80301f88 <resched+0x128>
80301f10:	e51b3008 	ldr	r3, [fp, #-8]
80301f14:	e593308c 	ldr	r3, [r3, #140]	; 0x8c
80301f18:	e3530000 	cmp	r3, #0
80301f1c:	0a000000 	beq	80301f24 <resched+0xc4>
80301f20:	ea000015 	b	80301f7c <resched+0x11c>
80301f24:	e51b3018 	ldr	r3, [fp, #-24]	; 0xffffffe8
80301f28:	e2033001 	and	r3, r3, #1
80301f2c:	e3530000 	cmp	r3, #0
80301f30:	0a000006 	beq	80301f50 <resched+0xf0>
80301f34:	e3083210 	movw	r3, #33296	; 0x8210
80301f38:	e3483031 	movt	r3, #32817	; 0x8031
80301f3c:	e5933000 	ldr	r3, [r3]
80301f40:	e51b2008 	ldr	r2, [fp, #-8]
80301f44:	e1520003 	cmp	r2, r3
80301f48:	1a000000 	bne	80301f50 <resched+0xf0>
80301f4c:	ea00000a 	b	80301f7c <resched+0x11c>
80301f50:	e51b3008 	ldr	r3, [fp, #-8]
80301f54:	e59320a0 	ldr	r2, [r3, #160]	; 0xa0
80301f58:	e51b3010 	ldr	r3, [fp, #-16]
80301f5c:	e1520003 	cmp	r2, r3
80301f60:	da000000 	ble	80301f68 <resched+0x108>
80301f64:	ea000004 	b	80301f7c <resched+0x11c>
80301f68:	e51b3008 	ldr	r3, [fp, #-8]
80301f6c:	e59330a0 	ldr	r3, [r3, #160]	; 0xa0
80301f70:	e50b3010 	str	r3, [fp, #-16]
80301f74:	e51b3008 	ldr	r3, [fp, #-8]
80301f78:	e50b300c 	str	r3, [fp, #-12]
80301f7c:	e51b3008 	ldr	r3, [fp, #-8]
80301f80:	e5933084 	ldr	r3, [r3, #132]	; 0x84
80301f84:	e50b3008 	str	r3, [fp, #-8]
80301f88:	e51b3008 	ldr	r3, [fp, #-8]
80301f8c:	e3530000 	cmp	r3, #0
80301f90:	1affffde 	bne	80301f10 <resched+0xb0>
80301f94:	e308320c 	movw	r3, #33292	; 0x820c
80301f98:	e3483031 	movt	r3, #32817	; 0x8031
80301f9c:	e5933000 	ldr	r3, [r3]
80301fa0:	e3530000 	cmp	r3, #0
80301fa4:	0a000014 	beq	80301ffc <resched+0x19c>
80301fa8:	e51b300c 	ldr	r3, [fp, #-12]
80301fac:	e3530000 	cmp	r3, #0
80301fb0:	0a00000e 	beq	80301ff0 <resched+0x190>
80301fb4:	e51b300c 	ldr	r3, [fp, #-12]
80301fb8:	e28330ac 	add	r3, r3, #172	; 0xac
80301fbc:	e30601e8 	movw	r0, #25064	; 0x61e8
80301fc0:	e3480030 	movt	r0, #32816	; 0x8030
80301fc4:	e1a01003 	mov	r1, r3
80301fc8:	eb0008f8 	bl	803043b0 <printf>
80301fcc:	e51b000c 	ldr	r0, [fp, #-12]
80301fd0:	ebfffaea 	bl	80300b80 <thr_show_state>
80301fd4:	e51b300c 	ldr	r3, [fp, #-12]
80301fd8:	e59330a0 	ldr	r3, [r3, #160]	; 0xa0
80301fdc:	e30601fc 	movw	r0, #25084	; 0x61fc
80301fe0:	e3480030 	movt	r0, #32816	; 0x8030
80301fe4:	e1a01003 	mov	r1, r3
80301fe8:	eb0008f0 	bl	803043b0 <printf>
80301fec:	ea000002 	b	80301ffc <resched+0x19c>
80301ff0:	e3060204 	movw	r0, #25092	; 0x6204
80301ff4:	e3480030 	movt	r0, #32816	; 0x8030
80301ff8:	eb0008ec 	bl	803043b0 <printf>
80301ffc:	e3083210 	movw	r3, #33296	; 0x8210
80302000:	e3483031 	movt	r3, #32817	; 0x8031
80302004:	e5933000 	ldr	r3, [r3]
80302008:	e51b200c 	ldr	r2, [fp, #-12]
8030200c:	e1520003 	cmp	r2, r3
80302010:	1a000002 	bne	80302020 <resched+0x1c0>
80302014:	e306021c 	movw	r0, #25116	; 0x621c
80302018:	e3480030 	movt	r0, #32816	; 0x8030
8030201c:	eb0008f3 	bl	803043f0 <panic>
80302020:	e51b300c 	ldr	r3, [fp, #-12]
80302024:	e3530000 	cmp	r3, #0
80302028:	0a00000b 	beq	8030205c <resched+0x1fc>
8030202c:	e51b3018 	ldr	r3, [fp, #-24]	; 0xffffffe8
80302030:	e2033001 	and	r3, r3, #1
80302034:	e3530000 	cmp	r3, #0
80302038:	0a000004 	beq	80302050 <resched+0x1f0>
8030203c:	e3083210 	movw	r3, #33296	; 0x8210
80302040:	e3483031 	movt	r3, #32817	; 0x8031
80302044:	e5932000 	ldr	r2, [r3]
80302048:	e51b300c 	ldr	r3, [fp, #-12]
8030204c:	e58320bc 	str	r2, [r3, #188]	; 0xbc
80302050:	e51b000c 	ldr	r0, [fp, #-12]
80302054:	e51b1018 	ldr	r1, [fp, #-24]	; 0xffffffe8
80302058:	ebfffed6 	bl	80301bb8 <change_thread>
8030205c:	ebfff801 	bl	80300068 <cpu_leave>
80302060:	e3083210 	movw	r3, #33296	; 0x8210
80302064:	e3483031 	movt	r3, #32817	; 0x8031
80302068:	e5933000 	ldr	r3, [r3]
8030206c:	e593308c 	ldr	r3, [r3, #140]	; 0x8c
80302070:	e3530000 	cmp	r3, #0
80302074:	1a000000 	bne	8030207c <resched+0x21c>
80302078:	ea000024 	b	80302110 <resched+0x2b0>
8030207c:	e308320c 	movw	r3, #33292	; 0x820c
80302080:	e3483031 	movt	r3, #32817	; 0x8031
80302084:	e5933000 	ldr	r3, [r3]
80302088:	e3530000 	cmp	r3, #0
8030208c:	0a000007 	beq	803020b0 <resched+0x250>
80302090:	e3083210 	movw	r3, #33296	; 0x8210
80302094:	e3483031 	movt	r3, #32817	; 0x8031
80302098:	e5933000 	ldr	r3, [r3]
8030209c:	e28330ac 	add	r3, r3, #172	; 0xac
803020a0:	e3060230 	movw	r0, #25136	; 0x6230
803020a4:	e3480030 	movt	r0, #32816	; 0x8030
803020a8:	e1a01003 	mov	r1, r3
803020ac:	eb0008bf 	bl	803043b0 <printf>
803020b0:	e3083210 	movw	r3, #33296	; 0x8210
803020b4:	e3483031 	movt	r3, #32817	; 0x8031
803020b8:	e5933000 	ldr	r3, [r3]
803020bc:	e283308c 	add	r3, r3, #140	; 0x8c
803020c0:	e50b3014 	str	r3, [fp, #-20]	; 0xffffffec
803020c4:	e1a00000 	nop			; (mov r0, r0)
803020c8:	e51b3014 	ldr	r3, [fp, #-20]	; 0xffffffec
803020cc:	e5933000 	ldr	r3, [r3]
803020d0:	e3530000 	cmp	r3, #0
803020d4:	1afffffb 	bne	803020c8 <resched+0x268>
803020d8:	e308320c 	movw	r3, #33292	; 0x820c
803020dc:	e3483031 	movt	r3, #32817	; 0x8031
803020e0:	e5933000 	ldr	r3, [r3]
803020e4:	e3530000 	cmp	r3, #0
803020e8:	0a000007 	beq	8030210c <resched+0x2ac>
803020ec:	e3083210 	movw	r3, #33296	; 0x8210
803020f0:	e3483031 	movt	r3, #32817	; 0x8031
803020f4:	e5933000 	ldr	r3, [r3]
803020f8:	e28330ac 	add	r3, r3, #172	; 0xac
803020fc:	e306023c 	movw	r0, #25148	; 0x623c
80302100:	e3480030 	movt	r0, #32816	; 0x8030
80302104:	e1a01003 	mov	r1, r3
80302108:	eb0008a8 	bl	803043b0 <printf>
8030210c:	e1a00000 	nop			; (mov r0, r0)
80302110:	e24bd004 	sub	sp, fp, #4
80302114:	e8bd8800 	pop	{fp, pc}

80302118 <sem_init>:
80302118:	e52db004 	push	{fp}		; (str fp, [sp, #-4]!)
8030211c:	e28db000 	add	fp, sp, #0
80302120:	e24dd014 	sub	sp, sp, #20
80302124:	e308306c 	movw	r3, #32876	; 0x806c
80302128:	e3483031 	movt	r3, #32817	; 0x8031
8030212c:	e3a02000 	mov	r2, #0
80302130:	e5832000 	str	r2, [r3]
80302134:	e3a03000 	mov	r3, #0
80302138:	e50b3008 	str	r3, [fp, #-8]
8030213c:	ea000011 	b	80302188 <sem_init+0x70>
80302140:	e51b3008 	ldr	r3, [fp, #-8]
80302144:	e1a02203 	lsl	r2, r3, #4
80302148:	e3073c6c 	movw	r3, #31852	; 0x7c6c
8030214c:	e3483031 	movt	r3, #32817	; 0x8031
80302150:	e0823003 	add	r3, r2, r3
80302154:	e50b300c 	str	r3, [fp, #-12]
80302158:	e308306c 	movw	r3, #32876	; 0x806c
8030215c:	e3483031 	movt	r3, #32817	; 0x8031
80302160:	e5932000 	ldr	r2, [r3]
80302164:	e51b300c 	ldr	r3, [fp, #-12]
80302168:	e5832000 	str	r2, [r3]
8030216c:	e308306c 	movw	r3, #32876	; 0x806c
80302170:	e3483031 	movt	r3, #32817	; 0x8031
80302174:	e51b200c 	ldr	r2, [fp, #-12]
80302178:	e5832000 	str	r2, [r3]
8030217c:	e51b3008 	ldr	r3, [fp, #-8]
80302180:	e2833001 	add	r3, r3, #1
80302184:	e50b3008 	str	r3, [fp, #-8]
80302188:	e51b3008 	ldr	r3, [fp, #-8]
8030218c:	e353003f 	cmp	r3, #63	; 0x3f
80302190:	daffffea 	ble	80302140 <sem_init+0x28>
80302194:	e30831f0 	movw	r3, #33264	; 0x81f0
80302198:	e3483031 	movt	r3, #32817	; 0x8031
8030219c:	e3a02000 	mov	r2, #0
803021a0:	e5832000 	str	r2, [r3]
803021a4:	e3a03000 	mov	r3, #0
803021a8:	e50b3008 	str	r3, [fp, #-8]
803021ac:	ea000014 	b	80302204 <sem_init+0xec>
803021b0:	e51b2008 	ldr	r2, [fp, #-8]
803021b4:	e1a03002 	mov	r3, r2
803021b8:	e1a03083 	lsl	r3, r3, #1
803021bc:	e0833002 	add	r3, r3, r2
803021c0:	e1a03103 	lsl	r3, r3, #2
803021c4:	e3082070 	movw	r2, #32880	; 0x8070
803021c8:	e3482031 	movt	r2, #32817	; 0x8031
803021cc:	e0833002 	add	r3, r3, r2
803021d0:	e50b3010 	str	r3, [fp, #-16]
803021d4:	e30831f0 	movw	r3, #33264	; 0x81f0
803021d8:	e3483031 	movt	r3, #32817	; 0x8031
803021dc:	e5932000 	ldr	r2, [r3]
803021e0:	e51b3010 	ldr	r3, [fp, #-16]
803021e4:	e5832000 	str	r2, [r3]
803021e8:	e30831f0 	movw	r3, #33264	; 0x81f0
803021ec:	e3483031 	movt	r3, #32817	; 0x8031
803021f0:	e51b2010 	ldr	r2, [fp, #-16]
803021f4:	e5832000 	str	r2, [r3]
803021f8:	e51b3008 	ldr	r3, [fp, #-8]
803021fc:	e2833001 	add	r3, r3, #1
80302200:	e50b3008 	str	r3, [fp, #-8]
80302204:	e51b3008 	ldr	r3, [fp, #-8]
80302208:	e353001f 	cmp	r3, #31
8030220c:	daffffe7 	ble	803021b0 <sem_init+0x98>
80302210:	e24bd000 	sub	sp, fp, #0
80302214:	e49db004 	pop	{fp}		; (ldr fp, [sp], #4)
80302218:	e12fff1e 	bx	lr

8030221c <sem_new>:
8030221c:	e92d4800 	push	{fp, lr}
80302220:	e28db004 	add	fp, sp, #4
80302224:	e24dd010 	sub	sp, sp, #16
80302228:	e50b0010 	str	r0, [fp, #-16]
8030222c:	e50b1014 	str	r1, [fp, #-20]	; 0xffffffec
80302230:	e308306c 	movw	r3, #32876	; 0x806c
80302234:	e3483031 	movt	r3, #32817	; 0x8031
80302238:	e5933000 	ldr	r3, [r3]
8030223c:	e3530000 	cmp	r3, #0
80302240:	1a000004 	bne	80302258 <sem_new+0x3c>
80302244:	e306024c 	movw	r0, #25164	; 0x624c
80302248:	e3480030 	movt	r0, #32816	; 0x8030
8030224c:	eb000867 	bl	803043f0 <panic>
80302250:	e3a03000 	mov	r3, #0
80302254:	ea000012 	b	803022a4 <sem_new+0x88>
80302258:	e308306c 	movw	r3, #32876	; 0x806c
8030225c:	e3483031 	movt	r3, #32817	; 0x8031
80302260:	e5933000 	ldr	r3, [r3]
80302264:	e50b3008 	str	r3, [fp, #-8]
80302268:	e51b3008 	ldr	r3, [fp, #-8]
8030226c:	e5932000 	ldr	r2, [r3]
80302270:	e308306c 	movw	r3, #32876	; 0x806c
80302274:	e3483031 	movt	r3, #32817	; 0x8031
80302278:	e5832000 	str	r2, [r3]
8030227c:	e51b3008 	ldr	r3, [fp, #-8]
80302280:	e51b2010 	ldr	r2, [fp, #-16]
80302284:	e5832004 	str	r2, [r3, #4]
80302288:	e51b3008 	ldr	r3, [fp, #-8]
8030228c:	e51b2014 	ldr	r2, [fp, #-20]	; 0xffffffec
80302290:	e5832008 	str	r2, [r3, #8]
80302294:	e51b3008 	ldr	r3, [fp, #-8]
80302298:	e3a02000 	mov	r2, #0
8030229c:	e583200c 	str	r2, [r3, #12]
803022a0:	e51b3008 	ldr	r3, [fp, #-8]
803022a4:	e1a00003 	mov	r0, r3
803022a8:	e24bd004 	sub	sp, fp, #4
803022ac:	e8bd8800 	pop	{fp, pc}

803022b0 <sem_mutex_new>:
803022b0:	e92d4800 	push	{fp, lr}
803022b4:	e28db004 	add	fp, sp, #4
803022b8:	e24dd008 	sub	sp, sp, #8
803022bc:	e50b0008 	str	r0, [fp, #-8]
803022c0:	e3a00001 	mov	r0, #1
803022c4:	e51b1008 	ldr	r1, [fp, #-8]
803022c8:	ebffffd3 	bl	8030221c <sem_new>
803022cc:	e1a03000 	mov	r3, r0
803022d0:	e1a00003 	mov	r0, r3
803022d4:	e24bd004 	sub	sp, fp, #4
803022d8:	e8bd8800 	pop	{fp, pc}

803022dc <sem_signal_new>:
803022dc:	e92d4800 	push	{fp, lr}
803022e0:	e28db004 	add	fp, sp, #4
803022e4:	e24dd008 	sub	sp, sp, #8
803022e8:	e50b0008 	str	r0, [fp, #-8]
803022ec:	e3a00000 	mov	r0, #0
803022f0:	e51b1008 	ldr	r1, [fp, #-8]
803022f4:	ebffffc8 	bl	8030221c <sem_new>
803022f8:	e1a03000 	mov	r3, r0
803022fc:	e1a00003 	mov	r0, r3
80302300:	e24bd004 	sub	sp, fp, #4
80302304:	e8bd8800 	pop	{fp, pc}

80302308 <sem_destroy>:
80302308:	e52db004 	push	{fp}		; (str fp, [sp, #-4]!)
8030230c:	e28db000 	add	fp, sp, #0
80302310:	e24dd00c 	sub	sp, sp, #12
80302314:	e50b0008 	str	r0, [fp, #-8]
80302318:	e308306c 	movw	r3, #32876	; 0x806c
8030231c:	e3483031 	movt	r3, #32817	; 0x8031
80302320:	e5932000 	ldr	r2, [r3]
80302324:	e51b3008 	ldr	r3, [fp, #-8]
80302328:	e5832000 	str	r2, [r3]
8030232c:	e308306c 	movw	r3, #32876	; 0x806c
80302330:	e3483031 	movt	r3, #32817	; 0x8031
80302334:	e51b2008 	ldr	r2, [fp, #-8]
80302338:	e5832000 	str	r2, [r3]
8030233c:	e24bd000 	sub	sp, fp, #0
80302340:	e49db004 	pop	{fp}		; (ldr fp, [sp], #4)
80302344:	e12fff1e 	bx	lr

80302348 <sem_unblock>:
80302348:	e92d4800 	push	{fp, lr}
8030234c:	e28db004 	add	fp, sp, #4
80302350:	e24dd010 	sub	sp, sp, #16
80302354:	e50b0010 	str	r0, [fp, #-16]
80302358:	e51b3010 	ldr	r3, [fp, #-16]
8030235c:	e5933004 	ldr	r3, [r3, #4]
80302360:	e3530001 	cmp	r3, #1
80302364:	1a000000 	bne	8030236c <sem_unblock+0x24>
80302368:	ea000010 	b	803023b0 <sem_unblock+0x68>
8030236c:	e51b3010 	ldr	r3, [fp, #-16]
80302370:	e593300c 	ldr	r3, [r3, #12]
80302374:	e3530000 	cmp	r3, #0
80302378:	0a000009 	beq	803023a4 <sem_unblock+0x5c>
8030237c:	e51b3010 	ldr	r3, [fp, #-16]
80302380:	e593300c 	ldr	r3, [r3, #12]
80302384:	e50b3008 	str	r3, [fp, #-8]
80302388:	e51b3008 	ldr	r3, [fp, #-8]
8030238c:	e5932088 	ldr	r2, [r3, #136]	; 0x88
80302390:	e51b3010 	ldr	r3, [fp, #-16]
80302394:	e583200c 	str	r2, [r3, #12]
80302398:	e51b0008 	ldr	r0, [fp, #-8]
8030239c:	ebfffd3c 	bl	80301894 <thr_unblock>
803023a0:	ea000002 	b	803023b0 <sem_unblock+0x68>
803023a4:	e51b3010 	ldr	r3, [fp, #-16]
803023a8:	e3a02001 	mov	r2, #1
803023ac:	e5832004 	str	r2, [r3, #4]
803023b0:	e24bd004 	sub	sp, fp, #4
803023b4:	e8bd8800 	pop	{fp, pc}

803023b8 <sem_block_try>:
803023b8:	e92d4800 	push	{fp, lr}
803023bc:	e28db004 	add	fp, sp, #4
803023c0:	e24dd008 	sub	sp, sp, #8
803023c4:	e50b0008 	str	r0, [fp, #-8]
803023c8:	ebfff722 	bl	80300058 <cpu_enter>
803023cc:	e51b3008 	ldr	r3, [fp, #-8]
803023d0:	e5933004 	ldr	r3, [r3, #4]
803023d4:	e3530000 	cmp	r3, #0
803023d8:	1a000002 	bne	803023e8 <sem_block_try+0x30>
803023dc:	ebfff721 	bl	80300068 <cpu_leave>
803023e0:	e3a03000 	mov	r3, #0
803023e4:	ea000002 	b	803023f4 <sem_block_try+0x3c>
803023e8:	e51b0008 	ldr	r0, [fp, #-8]
803023ec:	eb000058 	bl	80302554 <sem_block>
803023f0:	e3a03001 	mov	r3, #1
803023f4:	e1a00003 	mov	r0, r3
803023f8:	e24bd004 	sub	sp, fp, #4
803023fc:	e8bd8800 	pop	{fp, pc}

80302400 <sem_add>:
80302400:	e52db004 	push	{fp}		; (str fp, [sp, #-4]!)
80302404:	e28db000 	add	fp, sp, #0
80302408:	e24dd01c 	sub	sp, sp, #28
8030240c:	e50b0018 	str	r0, [fp, #-24]	; 0xffffffe8
80302410:	e51b3018 	ldr	r3, [fp, #-24]	; 0xffffffe8
80302414:	e5933008 	ldr	r3, [r3, #8]
80302418:	e2033001 	and	r3, r3, #1
8030241c:	e3530000 	cmp	r3, #0
80302420:	0a000029 	beq	803024cc <sem_add+0xcc>
80302424:	e51b3018 	ldr	r3, [fp, #-24]	; 0xffffffe8
80302428:	e593300c 	ldr	r3, [r3, #12]
8030242c:	e50b300c 	str	r3, [fp, #-12]
80302430:	ea000004 	b	80302448 <sem_add+0x48>
80302434:	e51b300c 	ldr	r3, [fp, #-12]
80302438:	e50b3010 	str	r3, [fp, #-16]
8030243c:	e51b300c 	ldr	r3, [fp, #-12]
80302440:	e5933088 	ldr	r3, [r3, #136]	; 0x88
80302444:	e50b300c 	str	r3, [fp, #-12]
80302448:	e51b300c 	ldr	r3, [fp, #-12]
8030244c:	e3530000 	cmp	r3, #0
80302450:	0a000007 	beq	80302474 <sem_add+0x74>
80302454:	e51b300c 	ldr	r3, [fp, #-12]
80302458:	e59320a0 	ldr	r2, [r3, #160]	; 0xa0
8030245c:	e3083210 	movw	r3, #33296	; 0x8210
80302460:	e3483031 	movt	r3, #32817	; 0x8031
80302464:	e5933000 	ldr	r3, [r3]
80302468:	e59330a0 	ldr	r3, [r3, #160]	; 0xa0
8030246c:	e1520003 	cmp	r2, r3
80302470:	daffffef 	ble	80302434 <sem_add+0x34>
80302474:	e3083210 	movw	r3, #33296	; 0x8210
80302478:	e3483031 	movt	r3, #32817	; 0x8031
8030247c:	e5933000 	ldr	r3, [r3]
80302480:	e51b200c 	ldr	r2, [fp, #-12]
80302484:	e5832088 	str	r2, [r3, #136]	; 0x88
80302488:	e51b3018 	ldr	r3, [fp, #-24]	; 0xffffffe8
8030248c:	e593200c 	ldr	r2, [r3, #12]
80302490:	e51b300c 	ldr	r3, [fp, #-12]
80302494:	e1520003 	cmp	r2, r3
80302498:	1a000005 	bne	803024b4 <sem_add+0xb4>
8030249c:	e3083210 	movw	r3, #33296	; 0x8210
803024a0:	e3483031 	movt	r3, #32817	; 0x8031
803024a4:	e5932000 	ldr	r2, [r3]
803024a8:	e51b3018 	ldr	r3, [fp, #-24]	; 0xffffffe8
803024ac:	e583200c 	str	r2, [r3, #12]
803024b0:	ea000024 	b	80302548 <sem_add+0x148>
803024b4:	e3083210 	movw	r3, #33296	; 0x8210
803024b8:	e3483031 	movt	r3, #32817	; 0x8031
803024bc:	e5932000 	ldr	r2, [r3]
803024c0:	e51b3010 	ldr	r3, [fp, #-16]
803024c4:	e5832088 	str	r2, [r3, #136]	; 0x88
803024c8:	ea00001e 	b	80302548 <sem_add+0x148>
803024cc:	e3083210 	movw	r3, #33296	; 0x8210
803024d0:	e3483031 	movt	r3, #32817	; 0x8031
803024d4:	e5933000 	ldr	r3, [r3]
803024d8:	e3a02000 	mov	r2, #0
803024dc:	e5832088 	str	r2, [r3, #136]	; 0x88
803024e0:	e51b3018 	ldr	r3, [fp, #-24]	; 0xffffffe8
803024e4:	e593300c 	ldr	r3, [r3, #12]
803024e8:	e3530000 	cmp	r3, #0
803024ec:	0a000010 	beq	80302534 <sem_add+0x134>
803024f0:	e51b3018 	ldr	r3, [fp, #-24]	; 0xffffffe8
803024f4:	e593300c 	ldr	r3, [r3, #12]
803024f8:	e50b3008 	str	r3, [fp, #-8]
803024fc:	ea000002 	b	8030250c <sem_add+0x10c>
80302500:	e51b3008 	ldr	r3, [fp, #-8]
80302504:	e5933088 	ldr	r3, [r3, #136]	; 0x88
80302508:	e50b3008 	str	r3, [fp, #-8]
8030250c:	e51b3008 	ldr	r3, [fp, #-8]
80302510:	e5933088 	ldr	r3, [r3, #136]	; 0x88
80302514:	e3530000 	cmp	r3, #0
80302518:	1afffff8 	bne	80302500 <sem_add+0x100>
8030251c:	e3083210 	movw	r3, #33296	; 0x8210
80302520:	e3483031 	movt	r3, #32817	; 0x8031
80302524:	e5932000 	ldr	r2, [r3]
80302528:	e51b3008 	ldr	r3, [fp, #-8]
8030252c:	e5832088 	str	r2, [r3, #136]	; 0x88
80302530:	ea000004 	b	80302548 <sem_add+0x148>
80302534:	e3083210 	movw	r3, #33296	; 0x8210
80302538:	e3483031 	movt	r3, #32817	; 0x8031
8030253c:	e5932000 	ldr	r2, [r3]
80302540:	e51b3018 	ldr	r3, [fp, #-24]	; 0xffffffe8
80302544:	e583200c 	str	r2, [r3, #12]
80302548:	e24bd000 	sub	sp, fp, #0
8030254c:	e49db004 	pop	{fp}		; (ldr fp, [sp], #4)
80302550:	e12fff1e 	bx	lr

80302554 <sem_block>:
80302554:	e92d4800 	push	{fp, lr}
80302558:	e28db004 	add	fp, sp, #4
8030255c:	e24dd008 	sub	sp, sp, #8
80302560:	e50b0008 	str	r0, [fp, #-8]
80302564:	ebfff6bb 	bl	80300058 <cpu_enter>
80302568:	e51b3008 	ldr	r3, [fp, #-8]
8030256c:	e5933004 	ldr	r3, [r3, #4]
80302570:	e3530001 	cmp	r3, #1
80302574:	1a000004 	bne	8030258c <sem_block+0x38>
80302578:	e51b3008 	ldr	r3, [fp, #-8]
8030257c:	e3a02000 	mov	r2, #0
80302580:	e5832004 	str	r2, [r3, #4]
80302584:	ebfff6b7 	bl	80300068 <cpu_leave>
80302588:	ea000003 	b	8030259c <sem_block+0x48>
8030258c:	e51b0008 	ldr	r0, [fp, #-8]
80302590:	ebffff9a 	bl	80302400 <sem_add>
80302594:	e3a00002 	mov	r0, #2
80302598:	ebfffc4e 	bl	803016d8 <thr_block>
8030259c:	e24bd004 	sub	sp, fp, #4
803025a0:	e8bd8800 	pop	{fp, pc}

803025a4 <sem_block_c>:
803025a4:	e92d4800 	push	{fp, lr}
803025a8:	e28db004 	add	fp, sp, #4
803025ac:	e24dd010 	sub	sp, sp, #16
803025b0:	e50b0008 	str	r0, [fp, #-8]
803025b4:	e50b100c 	str	r1, [fp, #-12]
803025b8:	e50b2010 	str	r2, [fp, #-16]
803025bc:	ebfff6a5 	bl	80300058 <cpu_enter>
803025c0:	e51b3008 	ldr	r3, [fp, #-8]
803025c4:	e5933004 	ldr	r3, [r3, #4]
803025c8:	e3530001 	cmp	r3, #1
803025cc:	1a000004 	bne	803025e4 <sem_block_c+0x40>
803025d0:	e51b3008 	ldr	r3, [fp, #-8]
803025d4:	e3a02000 	mov	r2, #0
803025d8:	e5832004 	str	r2, [r3, #4]
803025dc:	ebfff6a1 	bl	80300068 <cpu_leave>
803025e0:	ea000005 	b	803025fc <sem_block_c+0x58>
803025e4:	e51b0008 	ldr	r0, [fp, #-8]
803025e8:	ebffff84 	bl	80302400 <sem_add>
803025ec:	e3a00002 	mov	r0, #2
803025f0:	e51b100c 	ldr	r1, [fp, #-12]
803025f4:	e51b2010 	ldr	r2, [fp, #-16]
803025f8:	ebfffc57 	bl	8030175c <thr_block_c>
803025fc:	e24bd004 	sub	sp, fp, #4
80302600:	e8bd8800 	pop	{fp, pc}

80302604 <sem_block_q>:
80302604:	e92d4800 	push	{fp, lr}
80302608:	e28db004 	add	fp, sp, #4
8030260c:	e24dd008 	sub	sp, sp, #8
80302610:	e50b0008 	str	r0, [fp, #-8]
80302614:	ebfff68f 	bl	80300058 <cpu_enter>
80302618:	e51b3008 	ldr	r3, [fp, #-8]
8030261c:	e5933004 	ldr	r3, [r3, #4]
80302620:	e3530001 	cmp	r3, #1
80302624:	1a000004 	bne	8030263c <sem_block_q+0x38>
80302628:	e51b3008 	ldr	r3, [fp, #-8]
8030262c:	e3a02000 	mov	r2, #0
80302630:	e5832004 	str	r2, [r3, #4]
80302634:	ebfff68b 	bl	80300068 <cpu_leave>
80302638:	ea000003 	b	8030264c <sem_block_q+0x48>
8030263c:	e51b0008 	ldr	r0, [fp, #-8]
80302640:	ebffff6e 	bl	80302400 <sem_add>
80302644:	e3a00002 	mov	r0, #2
80302648:	ebfffc64 	bl	803017e0 <thr_block_q>
8030264c:	e24bd004 	sub	sp, fp, #4
80302650:	e8bd8800 	pop	{fp, pc}

80302654 <sem_block_m>:
80302654:	e92d4800 	push	{fp, lr}
80302658:	e28db004 	add	fp, sp, #4
8030265c:	e24dd008 	sub	sp, sp, #8
80302660:	e50b0008 	str	r0, [fp, #-8]
80302664:	e50b100c 	str	r1, [fp, #-12]
80302668:	ebfff67a 	bl	80300058 <cpu_enter>
8030266c:	e51b000c 	ldr	r0, [fp, #-12]
80302670:	ebffff34 	bl	80302348 <sem_unblock>
80302674:	e51b0008 	ldr	r0, [fp, #-8]
80302678:	ebffffb5 	bl	80302554 <sem_block>
8030267c:	e24bd004 	sub	sp, fp, #4
80302680:	e8bd8800 	pop	{fp, pc}

80302684 <cv_new>:
80302684:	e92d4800 	push	{fp, lr}
80302688:	e28db004 	add	fp, sp, #4
8030268c:	e24dd010 	sub	sp, sp, #16
80302690:	e50b0010 	str	r0, [fp, #-16]
80302694:	e3a00000 	mov	r0, #0
80302698:	e3a01000 	mov	r1, #0
8030269c:	ebfffede 	bl	8030221c <sem_new>
803026a0:	e50b0008 	str	r0, [fp, #-8]
803026a4:	e51b3008 	ldr	r3, [fp, #-8]
803026a8:	e3530000 	cmp	r3, #0
803026ac:	1a000001 	bne	803026b8 <cv_new+0x34>
803026b0:	e3a03000 	mov	r3, #0
803026b4:	ea000019 	b	80302720 <cv_new+0x9c>
803026b8:	e30831f0 	movw	r3, #33264	; 0x81f0
803026bc:	e3483031 	movt	r3, #32817	; 0x8031
803026c0:	e5933000 	ldr	r3, [r3]
803026c4:	e3530000 	cmp	r3, #0
803026c8:	1a000004 	bne	803026e0 <cv_new+0x5c>
803026cc:	e3060260 	movw	r0, #25184	; 0x6260
803026d0:	e3480030 	movt	r0, #32816	; 0x8030
803026d4:	eb000745 	bl	803043f0 <panic>
803026d8:	e3a03000 	mov	r3, #0
803026dc:	ea00000f 	b	80302720 <cv_new+0x9c>
803026e0:	e30831f0 	movw	r3, #33264	; 0x81f0
803026e4:	e3483031 	movt	r3, #32817	; 0x8031
803026e8:	e5933000 	ldr	r3, [r3]
803026ec:	e50b300c 	str	r3, [fp, #-12]
803026f0:	e51b300c 	ldr	r3, [fp, #-12]
803026f4:	e5932000 	ldr	r2, [r3]
803026f8:	e30831f0 	movw	r3, #33264	; 0x81f0
803026fc:	e3483031 	movt	r3, #32817	; 0x8031
80302700:	e5832000 	str	r2, [r3]
80302704:	e51b300c 	ldr	r3, [fp, #-12]
80302708:	e51b2008 	ldr	r2, [fp, #-8]
8030270c:	e5832004 	str	r2, [r3, #4]
80302710:	e51b300c 	ldr	r3, [fp, #-12]
80302714:	e51b2010 	ldr	r2, [fp, #-16]
80302718:	e5832008 	str	r2, [r3, #8]
8030271c:	e51b300c 	ldr	r3, [fp, #-12]
80302720:	e1a00003 	mov	r0, r3
80302724:	e24bd004 	sub	sp, fp, #4
80302728:	e8bd8800 	pop	{fp, pc}

8030272c <cv_destroy>:
8030272c:	e92d4800 	push	{fp, lr}
80302730:	e28db004 	add	fp, sp, #4
80302734:	e24dd008 	sub	sp, sp, #8
80302738:	e50b0008 	str	r0, [fp, #-8]
8030273c:	e51b3008 	ldr	r3, [fp, #-8]
80302740:	e5933004 	ldr	r3, [r3, #4]
80302744:	e1a00003 	mov	r0, r3
80302748:	ebfffeee 	bl	80302308 <sem_destroy>
8030274c:	e30831f0 	movw	r3, #33264	; 0x81f0
80302750:	e3483031 	movt	r3, #32817	; 0x8031
80302754:	e5932000 	ldr	r2, [r3]
80302758:	e51b3008 	ldr	r3, [fp, #-8]
8030275c:	e5832000 	str	r2, [r3]
80302760:	e30831f0 	movw	r3, #33264	; 0x81f0
80302764:	e3483031 	movt	r3, #32817	; 0x8031
80302768:	e51b2008 	ldr	r2, [fp, #-8]
8030276c:	e5832000 	str	r2, [r3]
80302770:	e24bd004 	sub	sp, fp, #4
80302774:	e8bd8800 	pop	{fp, pc}

80302778 <cv_signal>:
80302778:	e92d4800 	push	{fp, lr}
8030277c:	e28db004 	add	fp, sp, #4
80302780:	e24dd008 	sub	sp, sp, #8
80302784:	e50b0008 	str	r0, [fp, #-8]
80302788:	e51b3008 	ldr	r3, [fp, #-8]
8030278c:	e5933004 	ldr	r3, [r3, #4]
80302790:	e1a00003 	mov	r0, r3
80302794:	ebfffeeb 	bl	80302348 <sem_unblock>
80302798:	e24bd004 	sub	sp, fp, #4
8030279c:	e8bd8800 	pop	{fp, pc}

803027a0 <cv_wait>:
803027a0:	e92d4800 	push	{fp, lr}
803027a4:	e28db004 	add	fp, sp, #4
803027a8:	e24dd008 	sub	sp, sp, #8
803027ac:	e50b0008 	str	r0, [fp, #-8]
803027b0:	ebfff628 	bl	80300058 <cpu_enter>
803027b4:	e51b3008 	ldr	r3, [fp, #-8]
803027b8:	e5933008 	ldr	r3, [r3, #8]
803027bc:	e1a00003 	mov	r0, r3
803027c0:	ebfffee0 	bl	80302348 <sem_unblock>
803027c4:	e51b3008 	ldr	r3, [fp, #-8]
803027c8:	e5933004 	ldr	r3, [r3, #4]
803027cc:	e1a00003 	mov	r0, r3
803027d0:	ebffff5f 	bl	80302554 <sem_block>
803027d4:	e51b3008 	ldr	r3, [fp, #-8]
803027d8:	e5933008 	ldr	r3, [r3, #8]
803027dc:	e1a00003 	mov	r0, r3
803027e0:	ebffff5b 	bl	80302554 <sem_block>
803027e4:	e24bd004 	sub	sp, fp, #4
803027e8:	e8bd8800 	pop	{fp, pc}

803027ec <cpu_new>:
803027ec:	e92d4800 	push	{fp, lr}
803027f0:	e28db004 	add	fp, sp, #4
803027f4:	e3a00000 	mov	r0, #0
803027f8:	e3a01000 	mov	r1, #0
803027fc:	ebfffe86 	bl	8030221c <sem_new>
80302800:	e1a00003 	mov	r0, r3
80302804:	e8bd8800 	pop	{fp, pc}

80302808 <cpu_signal>:
80302808:	e92d4800 	push	{fp, lr}
8030280c:	e28db004 	add	fp, sp, #4
80302810:	e24dd008 	sub	sp, sp, #8
80302814:	e50b0008 	str	r0, [fp, #-8]
80302818:	e51b0008 	ldr	r0, [fp, #-8]
8030281c:	ebfffec9 	bl	80302348 <sem_unblock>
80302820:	e24bd004 	sub	sp, fp, #4
80302824:	e8bd8800 	pop	{fp, pc}

80302828 <cpu_wait>:
80302828:	e92d4800 	push	{fp, lr}
8030282c:	e28db004 	add	fp, sp, #4
80302830:	e24dd008 	sub	sp, sp, #8
80302834:	e50b0008 	str	r0, [fp, #-8]
80302838:	ebfff60a 	bl	80300068 <cpu_leave>
8030283c:	e51b0008 	ldr	r0, [fp, #-8]
80302840:	ebffff43 	bl	80302554 <sem_block>
80302844:	ebfff603 	bl	80300058 <cpu_enter>
80302848:	e24bd004 	sub	sp, fp, #4
8030284c:	e8bd8800 	pop	{fp, pc}

80302850 <kyu_main>:
80302850:	e92d4800 	push	{fp, lr}
80302854:	e28db004 	add	fp, sp, #4
80302858:	e24dd008 	sub	sp, sp, #8
8030285c:	e50b0008 	str	r0, [fp, #-8]
80302860:	e50b100c 	str	r1, [fp, #-12]
80302864:	e3a00cc2 	mov	r0, #49664	; 0xc200
80302868:	e3400001 	movt	r0, #1
8030286c:	eb0001d4 	bl	80302fc4 <serial_init>
80302870:	eb0000f2 	bl	80302c40 <wdt_disable>
80302874:	e3060280 	movw	r0, #25216	; 0x6280
80302878:	e3480030 	movt	r0, #32816	; 0x8030
8030287c:	eb0006cb 	bl	803043b0 <printf>
80302880:	eb0002a8 	bl	80303328 <gpio_init>
80302884:	eb0002c1 	bl	80303390 <gpio_test>
80302888:	e3a03000 	mov	r3, #0
8030288c:	e1a00003 	mov	r0, r3
80302890:	e24bd004 	sub	sp, fp, #4
80302894:	e8bd8800 	pop	{fp, pc}

80302898 <intcon_init>:
80302898:	e52db004 	push	{fp}		; (str fp, [sp, #-4]!)
8030289c:	e28db000 	add	fp, sp, #0
803028a0:	e24dd00c 	sub	sp, sp, #12
803028a4:	e3a03000 	mov	r3, #0
803028a8:	e3443820 	movt	r3, #18464	; 0x4820
803028ac:	e50b3008 	str	r3, [fp, #-8]
803028b0:	e51b3008 	ldr	r3, [fp, #-8]
803028b4:	e3a02000 	mov	r2, #0
803028b8:	e5832010 	str	r2, [r3, #16]
803028bc:	e24bd000 	sub	sp, fp, #0
803028c0:	e49db004 	pop	{fp}		; (ldr fp, [sp], #4)
803028c4:	e12fff1e 	bx	lr

803028c8 <intcon_test>:
803028c8:	e92d4800 	push	{fp, lr}
803028cc:	e28db004 	add	fp, sp, #4
803028d0:	e24dd008 	sub	sp, sp, #8
803028d4:	e3a03000 	mov	r3, #0
803028d8:	e3443820 	movt	r3, #18464	; 0x4820
803028dc:	e50b3008 	str	r3, [fp, #-8]
803028e0:	e51b3008 	ldr	r3, [fp, #-8]
803028e4:	e2833c01 	add	r3, r3, #256	; 0x100
803028e8:	e50b300c 	str	r3, [fp, #-12]
803028ec:	e3060294 	movw	r0, #25236	; 0x6294
803028f0:	e3480030 	movt	r0, #32816	; 0x8030
803028f4:	e51b100c 	ldr	r1, [fp, #-12]
803028f8:	eb0006ac 	bl	803043b0 <printf>
803028fc:	e24bd004 	sub	sp, fp, #4
80302900:	e8bd8800 	pop	{fp, pc}

80302904 <intcon_ena>:
80302904:	e52db004 	push	{fp}		; (str fp, [sp, #-4]!)
80302908:	e28db000 	add	fp, sp, #0
8030290c:	e24dd014 	sub	sp, sp, #20
80302910:	e50b0010 	str	r0, [fp, #-16]
80302914:	e3a03000 	mov	r3, #0
80302918:	e3443820 	movt	r3, #18464	; 0x4820
8030291c:	e50b3008 	str	r3, [fp, #-8]
80302920:	e51b3010 	ldr	r3, [fp, #-16]
80302924:	e203307f 	and	r3, r3, #127	; 0x7f
80302928:	e50b3010 	str	r3, [fp, #-16]
8030292c:	e51b3010 	ldr	r3, [fp, #-16]
80302930:	e283201f 	add	r2, r3, #31
80302934:	e3530000 	cmp	r3, #0
80302938:	b1a03002 	movlt	r3, r2
8030293c:	a1a03003 	movge	r3, r3
80302940:	e1a032c3 	asr	r3, r3, #5
80302944:	e50b300c 	str	r3, [fp, #-12]
80302948:	e51b2010 	ldr	r2, [fp, #-16]
8030294c:	e1a03fc2 	asr	r3, r2, #31
80302950:	e1a03da3 	lsr	r3, r3, #27
80302954:	e0822003 	add	r2, r2, r3
80302958:	e202201f 	and	r2, r2, #31
8030295c:	e0633002 	rsb	r3, r3, r2
80302960:	e1a02003 	mov	r2, r3
80302964:	e3a03001 	mov	r3, #1
80302968:	e1a03213 	lsl	r3, r3, r2
8030296c:	e1a01003 	mov	r1, r3
80302970:	e51b2008 	ldr	r2, [fp, #-8]
80302974:	e51b300c 	ldr	r3, [fp, #-12]
80302978:	e1a03283 	lsl	r3, r3, #5
8030297c:	e0823003 	add	r3, r2, r3
80302980:	e5831088 	str	r1, [r3, #136]	; 0x88
80302984:	e24bd000 	sub	sp, fp, #0
80302988:	e49db004 	pop	{fp}		; (ldr fp, [sp], #4)
8030298c:	e12fff1e 	bx	lr

80302990 <intcon_timer>:
80302990:	e92d4800 	push	{fp, lr}
80302994:	e28db004 	add	fp, sp, #4
80302998:	e3a00042 	mov	r0, #66	; 0x42
8030299c:	ebffffd8 	bl	80302904 <intcon_ena>
803029a0:	e8bd8800 	pop	{fp, pc}

803029a4 <intcon_uart>:
803029a4:	e92d4800 	push	{fp, lr}
803029a8:	e28db004 	add	fp, sp, #4
803029ac:	e3a00048 	mov	r0, #72	; 0x48
803029b0:	ebffffd3 	bl	80302904 <intcon_ena>
803029b4:	e8bd8800 	pop	{fp, pc}

803029b8 <intcon_irqwho>:
803029b8:	e52db004 	push	{fp}		; (str fp, [sp, #-4]!)
803029bc:	e28db000 	add	fp, sp, #0
803029c0:	e24dd00c 	sub	sp, sp, #12
803029c4:	e3a03000 	mov	r3, #0
803029c8:	e3443820 	movt	r3, #18464	; 0x4820
803029cc:	e50b3008 	str	r3, [fp, #-8]
803029d0:	e51b3008 	ldr	r3, [fp, #-8]
803029d4:	e5933040 	ldr	r3, [r3, #64]	; 0x40
803029d8:	e50b300c 	str	r3, [fp, #-12]
803029dc:	e51b3008 	ldr	r3, [fp, #-8]
803029e0:	e3a02001 	mov	r2, #1
803029e4:	e5832048 	str	r2, [r3, #72]	; 0x48
803029e8:	e51b3008 	ldr	r3, [fp, #-8]
803029ec:	e5933040 	ldr	r3, [r3, #64]	; 0x40
803029f0:	e203307f 	and	r3, r3, #127	; 0x7f
803029f4:	e1a00003 	mov	r0, r3
803029f8:	e24bd000 	sub	sp, fp, #0
803029fc:	e49db004 	pop	{fp}		; (ldr fp, [sp], #4)
80302a00:	e12fff1e 	bx	lr

80302a04 <delay1>:
80302a04:	e52db004 	push	{fp}		; (str fp, [sp, #-4]!)
80302a08:	e28db000 	add	fp, sp, #0
80302a0c:	e24dd00c 	sub	sp, sp, #12
80302a10:	e3a03cc2 	mov	r3, #49664	; 0xc200
80302a14:	e3403beb 	movt	r3, #3051	; 0xbeb
80302a18:	e50b3008 	str	r3, [fp, #-8]
80302a1c:	e1a00000 	nop			; (mov r0, r0)
80302a20:	e51b3008 	ldr	r3, [fp, #-8]
80302a24:	e2432001 	sub	r2, r3, #1
80302a28:	e50b2008 	str	r2, [fp, #-8]
80302a2c:	e3530000 	cmp	r3, #0
80302a30:	cafffffa 	bgt	80302a20 <delay1+0x1c>
80302a34:	e24bd000 	sub	sp, fp, #0
80302a38:	e49db004 	pop	{fp}		; (ldr fp, [sp], #4)
80302a3c:	e12fff1e 	bx	lr

80302a40 <delay10>:
80302a40:	e52db004 	push	{fp}		; (str fp, [sp, #-4]!)
80302a44:	e28db000 	add	fp, sp, #0
80302a48:	e24dd00c 	sub	sp, sp, #12
80302a4c:	e3a03c2d 	mov	r3, #11520	; 0x2d00
80302a50:	e3403131 	movt	r3, #305	; 0x131
80302a54:	e50b3008 	str	r3, [fp, #-8]
80302a58:	e1a00000 	nop			; (mov r0, r0)
80302a5c:	e51b3008 	ldr	r3, [fp, #-8]
80302a60:	e2432001 	sub	r2, r3, #1
80302a64:	e50b2008 	str	r2, [fp, #-8]
80302a68:	e3530000 	cmp	r3, #0
80302a6c:	cafffffa 	bgt	80302a5c <delay10+0x1c>
80302a70:	e24bd000 	sub	sp, fp, #0
80302a74:	e49db004 	pop	{fp}		; (ldr fp, [sp], #4)
80302a78:	e12fff1e 	bx	lr

80302a7c <timer_init>:
80302a7c:	e92d4800 	push	{fp, lr}
80302a80:	e28db004 	add	fp, sp, #4
80302a84:	e24dd010 	sub	sp, sp, #16
80302a88:	e50b0010 	str	r0, [fp, #-16]
80302a8c:	e3a03a05 	mov	r3, #20480	; 0x5000
80302a90:	e34434e0 	movt	r3, #17632	; 0x44e0
80302a94:	e50b3008 	str	r3, [fp, #-8]
80302a98:	e3e03000 	mvn	r3, #0
80302a9c:	e50b300c 	str	r3, [fp, #-12]
80302aa0:	e3a00902 	mov	r0, #32768	; 0x8000
80302aa4:	e51b1010 	ldr	r1, [fp, #-16]
80302aa8:	eb000a74 	bl	80305480 <__aeabi_idiv>
80302aac:	e1a03000 	mov	r3, r0
80302ab0:	e1a02003 	mov	r2, r3
80302ab4:	e51b300c 	ldr	r3, [fp, #-12]
80302ab8:	e0623003 	rsb	r3, r2, r3
80302abc:	e50b300c 	str	r3, [fp, #-12]
80302ac0:	e30602a8 	movw	r0, #25256	; 0x62a8
80302ac4:	e3480030 	movt	r0, #32816	; 0x8030
80302ac8:	e51b100c 	ldr	r1, [fp, #-12]
80302acc:	eb000637 	bl	803043b0 <printf>
80302ad0:	e51b3008 	ldr	r3, [fp, #-8]
80302ad4:	e2833040 	add	r3, r3, #64	; 0x40
80302ad8:	e51b200c 	ldr	r2, [fp, #-12]
80302adc:	e5832000 	str	r2, [r3]
80302ae0:	e51b3008 	ldr	r3, [fp, #-8]
80302ae4:	e283303c 	add	r3, r3, #60	; 0x3c
80302ae8:	e51b200c 	ldr	r2, [fp, #-12]
80302aec:	e5832000 	str	r2, [r3]
80302af0:	e51b3008 	ldr	r3, [fp, #-8]
80302af4:	e2833038 	add	r3, r3, #56	; 0x38
80302af8:	e3a02003 	mov	r2, #3
80302afc:	e5832000 	str	r2, [r3]
80302b00:	e24bd004 	sub	sp, fp, #4
80302b04:	e8bd8800 	pop	{fp, pc}

80302b08 <timer_test>:
80302b08:	e92d4800 	push	{fp, lr}
80302b0c:	e28db004 	add	fp, sp, #4
80302b10:	e24dd010 	sub	sp, sp, #16
80302b14:	e3a03a05 	mov	r3, #20480	; 0x5000
80302b18:	e34434e0 	movt	r3, #17632	; 0x44e0
80302b1c:	e50b300c 	str	r3, [fp, #-12]
80302b20:	e3a03000 	mov	r3, #0
80302b24:	e50b3008 	str	r3, [fp, #-8]
80302b28:	ea000018 	b	80302b90 <timer_test+0x88>
80302b2c:	e51b300c 	ldr	r3, [fp, #-12]
80302b30:	e283303c 	add	r3, r3, #60	; 0x3c
80302b34:	e5933000 	ldr	r3, [r3]
80302b38:	e50b3010 	str	r3, [fp, #-16]
80302b3c:	e51b300c 	ldr	r3, [fp, #-12]
80302b40:	e2833024 	add	r3, r3, #36	; 0x24
80302b44:	e5933000 	ldr	r3, [r3]
80302b48:	e50b3014 	str	r3, [fp, #-20]	; 0xffffffec
80302b4c:	e30602b8 	movw	r0, #25272	; 0x62b8
80302b50:	e3480030 	movt	r0, #32816	; 0x8030
80302b54:	e51b1010 	ldr	r1, [fp, #-16]
80302b58:	e51b2014 	ldr	r2, [fp, #-20]	; 0xffffffec
80302b5c:	eb000613 	bl	803043b0 <printf>
80302b60:	e51b3014 	ldr	r3, [fp, #-20]	; 0xffffffec
80302b64:	e3530000 	cmp	r3, #0
80302b68:	0a000003 	beq	80302b7c <timer_test+0x74>
80302b6c:	e51b300c 	ldr	r3, [fp, #-12]
80302b70:	e2833028 	add	r3, r3, #40	; 0x28
80302b74:	e3a02002 	mov	r2, #2
80302b78:	e5832000 	str	r2, [r3]
80302b7c:	ebffffaf 	bl	80302a40 <delay10>
80302b80:	ebffffae 	bl	80302a40 <delay10>
80302b84:	e51b3008 	ldr	r3, [fp, #-8]
80302b88:	e2833001 	add	r3, r3, #1
80302b8c:	e50b3008 	str	r3, [fp, #-8]
80302b90:	e51b3008 	ldr	r3, [fp, #-8]
80302b94:	e3530013 	cmp	r3, #19
80302b98:	daffffe3 	ble	80302b2c <timer_test+0x24>
80302b9c:	e24bd004 	sub	sp, fp, #4
80302ba0:	e8bd8800 	pop	{fp, pc}

80302ba4 <timer_irqena>:
80302ba4:	e52db004 	push	{fp}		; (str fp, [sp, #-4]!)
80302ba8:	e28db000 	add	fp, sp, #0
80302bac:	e24dd00c 	sub	sp, sp, #12
80302bb0:	e3a03a05 	mov	r3, #20480	; 0x5000
80302bb4:	e34434e0 	movt	r3, #17632	; 0x44e0
80302bb8:	e50b3008 	str	r3, [fp, #-8]
80302bbc:	e51b3008 	ldr	r3, [fp, #-8]
80302bc0:	e283302c 	add	r3, r3, #44	; 0x2c
80302bc4:	e3a02002 	mov	r2, #2
80302bc8:	e5832000 	str	r2, [r3]
80302bcc:	e24bd000 	sub	sp, fp, #0
80302bd0:	e49db004 	pop	{fp}		; (ldr fp, [sp], #4)
80302bd4:	e12fff1e 	bx	lr

80302bd8 <timer_irqdis>:
80302bd8:	e52db004 	push	{fp}		; (str fp, [sp, #-4]!)
80302bdc:	e28db000 	add	fp, sp, #0
80302be0:	e24dd00c 	sub	sp, sp, #12
80302be4:	e3a03a05 	mov	r3, #20480	; 0x5000
80302be8:	e34434e0 	movt	r3, #17632	; 0x44e0
80302bec:	e50b3008 	str	r3, [fp, #-8]
80302bf0:	e51b3008 	ldr	r3, [fp, #-8]
80302bf4:	e2833030 	add	r3, r3, #48	; 0x30
80302bf8:	e3a02002 	mov	r2, #2
80302bfc:	e5832000 	str	r2, [r3]
80302c00:	e24bd000 	sub	sp, fp, #0
80302c04:	e49db004 	pop	{fp}		; (ldr fp, [sp], #4)
80302c08:	e12fff1e 	bx	lr

80302c0c <timer_irqack>:
80302c0c:	e52db004 	push	{fp}		; (str fp, [sp, #-4]!)
80302c10:	e28db000 	add	fp, sp, #0
80302c14:	e24dd00c 	sub	sp, sp, #12
80302c18:	e3a03a05 	mov	r3, #20480	; 0x5000
80302c1c:	e34434e0 	movt	r3, #17632	; 0x44e0
80302c20:	e50b3008 	str	r3, [fp, #-8]
80302c24:	e51b3008 	ldr	r3, [fp, #-8]
80302c28:	e2833028 	add	r3, r3, #40	; 0x28
80302c2c:	e3a02002 	mov	r2, #2
80302c30:	e5832000 	str	r2, [r3]
80302c34:	e24bd000 	sub	sp, fp, #0
80302c38:	e49db004 	pop	{fp}		; (ldr fp, [sp], #4)
80302c3c:	e12fff1e 	bx	lr

80302c40 <wdt_disable>:
80302c40:	e52db004 	push	{fp}		; (str fp, [sp, #-4]!)
80302c44:	e28db000 	add	fp, sp, #0
80302c48:	e24dd00c 	sub	sp, sp, #12
80302c4c:	e3a03a05 	mov	r3, #20480	; 0x5000
80302c50:	e34434e3 	movt	r3, #17635	; 0x44e3
80302c54:	e50b3008 	str	r3, [fp, #-8]
80302c58:	e51b3008 	ldr	r3, [fp, #-8]
80302c5c:	e30a2aaa 	movw	r2, #43690	; 0xaaaa
80302c60:	e5832048 	str	r2, [r3, #72]	; 0x48
80302c64:	e1a00000 	nop			; (mov r0, r0)
80302c68:	e51b3008 	ldr	r3, [fp, #-8]
80302c6c:	e5933034 	ldr	r3, [r3, #52]	; 0x34
80302c70:	e2033010 	and	r3, r3, #16
80302c74:	e3530000 	cmp	r3, #0
80302c78:	1afffffa 	bne	80302c68 <wdt_disable+0x28>
80302c7c:	e51b3008 	ldr	r3, [fp, #-8]
80302c80:	e3052555 	movw	r2, #21845	; 0x5555
80302c84:	e5832048 	str	r2, [r3, #72]	; 0x48
80302c88:	e1a00000 	nop			; (mov r0, r0)
80302c8c:	e51b3008 	ldr	r3, [fp, #-8]
80302c90:	e5933034 	ldr	r3, [r3, #52]	; 0x34
80302c94:	e2033010 	and	r3, r3, #16
80302c98:	e3530000 	cmp	r3, #0
80302c9c:	1afffffa 	bne	80302c8c <wdt_disable+0x4c>
80302ca0:	e24bd000 	sub	sp, fp, #0
80302ca4:	e49db004 	pop	{fp}		; (ldr fp, [sp], #4)
80302ca8:	e12fff1e 	bx	lr

80302cac <wdt_enable>:
80302cac:	e52db004 	push	{fp}		; (str fp, [sp, #-4]!)
80302cb0:	e28db000 	add	fp, sp, #0
80302cb4:	e24dd00c 	sub	sp, sp, #12
80302cb8:	e3a03a05 	mov	r3, #20480	; 0x5000
80302cbc:	e34434e3 	movt	r3, #17635	; 0x44e3
80302cc0:	e50b3008 	str	r3, [fp, #-8]
80302cc4:	e51b3008 	ldr	r3, [fp, #-8]
80302cc8:	e30b2bbb 	movw	r2, #48059	; 0xbbbb
80302ccc:	e5832048 	str	r2, [r3, #72]	; 0x48
80302cd0:	e1a00000 	nop			; (mov r0, r0)
80302cd4:	e51b3008 	ldr	r3, [fp, #-8]
80302cd8:	e5933034 	ldr	r3, [r3, #52]	; 0x34
80302cdc:	e2033010 	and	r3, r3, #16
80302ce0:	e3530000 	cmp	r3, #0
80302ce4:	1afffffa 	bne	80302cd4 <wdt_enable+0x28>
80302ce8:	e51b3008 	ldr	r3, [fp, #-8]
80302cec:	e3042444 	movw	r2, #17476	; 0x4444
80302cf0:	e5832048 	str	r2, [r3, #72]	; 0x48
80302cf4:	e1a00000 	nop			; (mov r0, r0)
80302cf8:	e51b3008 	ldr	r3, [fp, #-8]
80302cfc:	e5933034 	ldr	r3, [r3, #52]	; 0x34
80302d00:	e2033010 	and	r3, r3, #16
80302d04:	e3530000 	cmp	r3, #0
80302d08:	1afffffa 	bne	80302cf8 <wdt_enable+0x4c>
80302d0c:	e24bd000 	sub	sp, fp, #0
80302d10:	e49db004 	pop	{fp}		; (ldr fp, [sp], #4)
80302d14:	e12fff1e 	bx	lr

80302d18 <wdt_reset>:
80302d18:	e52db004 	push	{fp}		; (str fp, [sp, #-4]!)
80302d1c:	e28db000 	add	fp, sp, #0
80302d20:	e24dd00c 	sub	sp, sp, #12
80302d24:	e3a03a05 	mov	r3, #20480	; 0x5000
80302d28:	e34434e3 	movt	r3, #17635	; 0x44e3
80302d2c:	e50b3008 	str	r3, [fp, #-8]
80302d30:	e1a00000 	nop			; (mov r0, r0)
80302d34:	e51b3008 	ldr	r3, [fp, #-8]
80302d38:	e5933034 	ldr	r3, [r3, #52]	; 0x34
80302d3c:	e2033008 	and	r3, r3, #8
80302d40:	e3530000 	cmp	r3, #0
80302d44:	1afffffa 	bne	80302d34 <wdt_reset+0x1c>
80302d48:	e3063428 	movw	r3, #25640	; 0x6428
80302d4c:	e3483031 	movt	r3, #32817	; 0x8031
80302d50:	e5933000 	ldr	r3, [r3]
80302d54:	e1e02003 	mvn	r2, r3
80302d58:	e3063428 	movw	r3, #25640	; 0x6428
80302d5c:	e3483031 	movt	r3, #32817	; 0x8031
80302d60:	e5832000 	str	r2, [r3]
80302d64:	e3063428 	movw	r3, #25640	; 0x6428
80302d68:	e3483031 	movt	r3, #32817	; 0x8031
80302d6c:	e5932000 	ldr	r2, [r3]
80302d70:	e51b3008 	ldr	r3, [fp, #-8]
80302d74:	e5832030 	str	r2, [r3, #48]	; 0x30
80302d78:	e1a00000 	nop			; (mov r0, r0)
80302d7c:	e51b3008 	ldr	r3, [fp, #-8]
80302d80:	e5933034 	ldr	r3, [r3, #52]	; 0x34
80302d84:	e2033008 	and	r3, r3, #8
80302d88:	e3530000 	cmp	r3, #0
80302d8c:	1afffffa 	bne	80302d7c <wdt_reset+0x64>
80302d90:	e24bd000 	sub	sp, fp, #0
80302d94:	e49db004 	pop	{fp}		; (ldr fp, [sp], #4)
80302d98:	e12fff1e 	bx	lr

80302d9c <wdt_set_timeout>:
80302d9c:	e92d4800 	push	{fp, lr}
80302da0:	e28db004 	add	fp, sp, #4
80302da4:	e24dd010 	sub	sp, sp, #16
80302da8:	e50b0010 	str	r0, [fp, #-16]
80302dac:	e3a03a05 	mov	r3, #20480	; 0x5000
80302db0:	e34434e3 	movt	r3, #17635	; 0x44e3
80302db4:	e50b3008 	str	r3, [fp, #-8]
80302db8:	e51b3010 	ldr	r3, [fp, #-16]
80302dbc:	e1a03783 	lsl	r3, r3, #15
80302dc0:	e2633000 	rsb	r3, r3, #0
80302dc4:	e50b300c 	str	r3, [fp, #-12]
80302dc8:	e30602cc 	movw	r0, #25292	; 0x62cc
80302dcc:	e3480030 	movt	r0, #32816	; 0x8030
80302dd0:	e51b100c 	ldr	r1, [fp, #-12]
80302dd4:	eb000575 	bl	803043b0 <printf>
80302dd8:	e1a00000 	nop			; (mov r0, r0)
80302ddc:	e51b3008 	ldr	r3, [fp, #-8]
80302de0:	e5933034 	ldr	r3, [r3, #52]	; 0x34
80302de4:	e2033004 	and	r3, r3, #4
80302de8:	e3530000 	cmp	r3, #0
80302dec:	1afffffa 	bne	80302ddc <wdt_set_timeout+0x40>
80302df0:	e51b3008 	ldr	r3, [fp, #-8]
80302df4:	e51b200c 	ldr	r2, [fp, #-12]
80302df8:	e583202c 	str	r2, [r3, #44]	; 0x2c
80302dfc:	e1a00000 	nop			; (mov r0, r0)
80302e00:	e51b3008 	ldr	r3, [fp, #-8]
80302e04:	e5933034 	ldr	r3, [r3, #52]	; 0x34
80302e08:	e2033004 	and	r3, r3, #4
80302e0c:	e3530000 	cmp	r3, #0
80302e10:	1afffffa 	bne	80302e00 <wdt_set_timeout+0x64>
80302e14:	e24bd004 	sub	sp, fp, #4
80302e18:	e8bd8800 	pop	{fp, pc}

80302e1c <wdt_set_prescale>:
80302e1c:	e92d4800 	push	{fp, lr}
80302e20:	e28db004 	add	fp, sp, #4
80302e24:	e24dd008 	sub	sp, sp, #8
80302e28:	e3a03a05 	mov	r3, #20480	; 0x5000
80302e2c:	e34434e3 	movt	r3, #17635	; 0x44e3
80302e30:	e50b3008 	str	r3, [fp, #-8]
80302e34:	e51b3008 	ldr	r3, [fp, #-8]
80302e38:	e5933024 	ldr	r3, [r3, #36]	; 0x24
80302e3c:	e30602e0 	movw	r0, #25312	; 0x62e0
80302e40:	e3480030 	movt	r0, #32816	; 0x8030
80302e44:	e1a01003 	mov	r1, r3
80302e48:	eb000558 	bl	803043b0 <printf>
80302e4c:	e1a00000 	nop			; (mov r0, r0)
80302e50:	e51b3008 	ldr	r3, [fp, #-8]
80302e54:	e5933034 	ldr	r3, [r3, #52]	; 0x34
80302e58:	e2033001 	and	r3, r3, #1
80302e5c:	e3530000 	cmp	r3, #0
80302e60:	1afffffa 	bne	80302e50 <wdt_set_prescale+0x34>
80302e64:	e51b3008 	ldr	r3, [fp, #-8]
80302e68:	e3a02020 	mov	r2, #32
80302e6c:	e5832024 	str	r2, [r3, #36]	; 0x24
80302e70:	e1a00000 	nop			; (mov r0, r0)
80302e74:	e51b3008 	ldr	r3, [fp, #-8]
80302e78:	e5933034 	ldr	r3, [r3, #52]	; 0x34
80302e7c:	e2033001 	and	r3, r3, #1
80302e80:	e3530000 	cmp	r3, #0
80302e84:	1afffffa 	bne	80302e74 <wdt_set_prescale+0x58>
80302e88:	e51b3008 	ldr	r3, [fp, #-8]
80302e8c:	e5933024 	ldr	r3, [r3, #36]	; 0x24
80302e90:	e30602fc 	movw	r0, #25340	; 0x62fc
80302e94:	e3480030 	movt	r0, #32816	; 0x8030
80302e98:	e1a01003 	mov	r1, r3
80302e9c:	eb000543 	bl	803043b0 <printf>
80302ea0:	e24bd004 	sub	sp, fp, #4
80302ea4:	e8bd8800 	pop	{fp, pc}

80302ea8 <wdt_init>:
80302ea8:	e92d4800 	push	{fp, lr}
80302eac:	e28db004 	add	fp, sp, #4
80302eb0:	e24dd010 	sub	sp, sp, #16
80302eb4:	e50b0010 	str	r0, [fp, #-16]
80302eb8:	e3a03a05 	mov	r3, #20480	; 0x5000
80302ebc:	e34434e3 	movt	r3, #17635	; 0x44e3
80302ec0:	e50b3008 	str	r3, [fp, #-8]
80302ec4:	ebffff5d 	bl	80302c40 <wdt_disable>
80302ec8:	e51b3010 	ldr	r3, [fp, #-16]
80302ecc:	e3530000 	cmp	r3, #0
80302ed0:	1a000000 	bne	80302ed8 <wdt_init+0x30>
80302ed4:	ea000004 	b	80302eec <wdt_init+0x44>
80302ed8:	ebffffcf 	bl	80302e1c <wdt_set_prescale>
80302edc:	e51b0010 	ldr	r0, [fp, #-16]
80302ee0:	ebffffad 	bl	80302d9c <wdt_set_timeout>
80302ee4:	ebffff70 	bl	80302cac <wdt_enable>
80302ee8:	ebffff8a 	bl	80302d18 <wdt_reset>
80302eec:	e24bd004 	sub	sp, fp, #4
80302ef0:	e8bd8800 	pop	{fp, pc}

80302ef4 <calc_divisor>:
80302ef4:	e92d4800 	push	{fp, lr}
80302ef8:	e28db004 	add	fp, sp, #4
80302efc:	e24dd018 	sub	sp, sp, #24
80302f00:	e50b0018 	str	r0, [fp, #-24]	; 0xffffffe8
80302f04:	e50b101c 	str	r1, [fp, #-28]	; 0xffffffe4
80302f08:	e3a03010 	mov	r3, #16
80302f0c:	e50b3008 	str	r3, [fp, #-8]
80302f10:	e51b3018 	ldr	r3, [fp, #-24]	; 0xffffffe8
80302f14:	e50b300c 	str	r3, [fp, #-12]
80302f18:	e51b201c 	ldr	r2, [fp, #-28]	; 0xffffffe4
80302f1c:	e51b3008 	ldr	r3, [fp, #-8]
80302f20:	e0030392 	mul	r3, r2, r3
80302f24:	e50b3010 	str	r3, [fp, #-16]
80302f28:	e51b3010 	ldr	r3, [fp, #-16]
80302f2c:	e1a020a3 	lsr	r2, r3, #1
80302f30:	e51b300c 	ldr	r3, [fp, #-12]
80302f34:	e0823003 	add	r3, r2, r3
80302f38:	e1a00003 	mov	r0, r3
80302f3c:	e51b1010 	ldr	r1, [fp, #-16]
80302f40:	eb0008cb 	bl	80305274 <__aeabi_uidiv>
80302f44:	e1a03000 	mov	r3, r0
80302f48:	e1a00003 	mov	r0, r3
80302f4c:	e24bd004 	sub	sp, fp, #4
80302f50:	e8bd8800 	pop	{fp, pc}

80302f54 <setbrg>:
80302f54:	e52db004 	push	{fp}		; (str fp, [sp, #-4]!)
80302f58:	e28db000 	add	fp, sp, #0
80302f5c:	e24dd014 	sub	sp, sp, #20
80302f60:	e50b0010 	str	r0, [fp, #-16]
80302f64:	e3a03a09 	mov	r3, #36864	; 0x9000
80302f68:	e34434e0 	movt	r3, #17632	; 0x44e0
80302f6c:	e50b3008 	str	r3, [fp, #-8]
80302f70:	e51b3008 	ldr	r3, [fp, #-8]
80302f74:	e283300c 	add	r3, r3, #12
80302f78:	e3e0207c 	mvn	r2, #124	; 0x7c
80302f7c:	e5c32000 	strb	r2, [r3]
80302f80:	e51b3008 	ldr	r3, [fp, #-8]
80302f84:	e51b2010 	ldr	r2, [fp, #-16]
80302f88:	e6ef2072 	uxtb	r2, r2
80302f8c:	e5c32000 	strb	r2, [r3]
80302f90:	e51b3008 	ldr	r3, [fp, #-8]
80302f94:	e2833004 	add	r3, r3, #4
80302f98:	e51b2010 	ldr	r2, [fp, #-16]
80302f9c:	e1a02442 	asr	r2, r2, #8
80302fa0:	e6ef2072 	uxtb	r2, r2
80302fa4:	e5c32000 	strb	r2, [r3]
80302fa8:	e51b3008 	ldr	r3, [fp, #-8]
80302fac:	e283300c 	add	r3, r3, #12
80302fb0:	e3a02003 	mov	r2, #3
80302fb4:	e5c32000 	strb	r2, [r3]
80302fb8:	e24bd000 	sub	sp, fp, #0
80302fbc:	e49db004 	pop	{fp}		; (ldr fp, [sp], #4)
80302fc0:	e12fff1e 	bx	lr

80302fc4 <serial_init>:
80302fc4:	e92d4800 	push	{fp, lr}
80302fc8:	e28db004 	add	fp, sp, #4
80302fcc:	e24dd010 	sub	sp, sp, #16
80302fd0:	e50b0010 	str	r0, [fp, #-16]
80302fd4:	e3a00b1b 	mov	r0, #27648	; 0x6c00
80302fd8:	e34002dc 	movt	r0, #732	; 0x2dc
80302fdc:	e51b1010 	ldr	r1, [fp, #-16]
80302fe0:	ebffffc3 	bl	80302ef4 <calc_divisor>
80302fe4:	e50b0008 	str	r0, [fp, #-8]
80302fe8:	eb00011e 	bl	80303468 <setup_uart0_mux>
80302fec:	e51b0008 	ldr	r0, [fp, #-8]
80302ff0:	eb000001 	bl	80302ffc <serial_init_int>
80302ff4:	e24bd004 	sub	sp, fp, #4
80302ff8:	e8bd8800 	pop	{fp, pc}

80302ffc <serial_init_int>:
80302ffc:	e92d4800 	push	{fp, lr}
80303000:	e28db004 	add	fp, sp, #4
80303004:	e24dd010 	sub	sp, sp, #16
80303008:	e50b0010 	str	r0, [fp, #-16]
8030300c:	e3a03a09 	mov	r3, #36864	; 0x9000
80303010:	e34434e0 	movt	r3, #17632	; 0x44e0
80303014:	e50b3008 	str	r3, [fp, #-8]
80303018:	e1a00000 	nop			; (mov r0, r0)
8030301c:	e51b3008 	ldr	r3, [fp, #-8]
80303020:	e2833014 	add	r3, r3, #20
80303024:	e5d33000 	ldrb	r3, [r3]
80303028:	e6ef3073 	uxtb	r3, r3
8030302c:	e2033040 	and	r3, r3, #64	; 0x40
80303030:	e3530000 	cmp	r3, #0
80303034:	0afffff8 	beq	8030301c <serial_init_int+0x20>
80303038:	e51b3008 	ldr	r3, [fp, #-8]
8030303c:	e2833004 	add	r3, r3, #4
80303040:	e3a02000 	mov	r2, #0
80303044:	e5c32000 	strb	r2, [r3]
80303048:	e51b3008 	ldr	r3, [fp, #-8]
8030304c:	e2833020 	add	r3, r3, #32
80303050:	e3a02007 	mov	r2, #7
80303054:	e5c32000 	strb	r2, [r3]
80303058:	e3a00000 	mov	r0, #0
8030305c:	ebffffbc 	bl	80302f54 <setbrg>
80303060:	e51b3008 	ldr	r3, [fp, #-8]
80303064:	e2833010 	add	r3, r3, #16
80303068:	e3a02003 	mov	r2, #3
8030306c:	e5c32000 	strb	r2, [r3]
80303070:	e51b3008 	ldr	r3, [fp, #-8]
80303074:	e2833008 	add	r3, r3, #8
80303078:	e3a02007 	mov	r2, #7
8030307c:	e5c32000 	strb	r2, [r3]
80303080:	e51b3010 	ldr	r3, [fp, #-16]
80303084:	e3730001 	cmn	r3, #1
80303088:	0a000001 	beq	80303094 <serial_init_int+0x98>
8030308c:	e51b0010 	ldr	r0, [fp, #-16]
80303090:	ebffffaf 	bl	80302f54 <setbrg>
80303094:	e51b3008 	ldr	r3, [fp, #-8]
80303098:	e2833020 	add	r3, r3, #32
8030309c:	e3a02000 	mov	r2, #0
803030a0:	e5c32000 	strb	r2, [r3]
803030a4:	e24bd004 	sub	sp, fp, #4
803030a8:	e8bd8800 	pop	{fp, pc}

803030ac <serial_putc>:
803030ac:	e92d4800 	push	{fp, lr}
803030b0:	e28db004 	add	fp, sp, #4
803030b4:	e24dd010 	sub	sp, sp, #16
803030b8:	e50b0010 	str	r0, [fp, #-16]
803030bc:	e3a03a09 	mov	r3, #36864	; 0x9000
803030c0:	e34434e0 	movt	r3, #17632	; 0x44e0
803030c4:	e50b3008 	str	r3, [fp, #-8]
803030c8:	e1a00000 	nop			; (mov r0, r0)
803030cc:	e51b3008 	ldr	r3, [fp, #-8]
803030d0:	e2833014 	add	r3, r3, #20
803030d4:	e5d33000 	ldrb	r3, [r3]
803030d8:	e6ef3073 	uxtb	r3, r3
803030dc:	e2033020 	and	r3, r3, #32
803030e0:	e3530000 	cmp	r3, #0
803030e4:	0afffff8 	beq	803030cc <serial_putc+0x20>
803030e8:	e51b3008 	ldr	r3, [fp, #-8]
803030ec:	e51b2010 	ldr	r2, [fp, #-16]
803030f0:	e6ef2072 	uxtb	r2, r2
803030f4:	e5c32000 	strb	r2, [r3]
803030f8:	e51b3010 	ldr	r3, [fp, #-16]
803030fc:	e353000a 	cmp	r3, #10
80303100:	1a000001 	bne	8030310c <serial_putc+0x60>
80303104:	e3a0000d 	mov	r0, #13
80303108:	ebffffe7 	bl	803030ac <serial_putc>
8030310c:	e24bd004 	sub	sp, fp, #4
80303110:	e8bd8800 	pop	{fp, pc}

80303114 <serial_getc>:
80303114:	e52db004 	push	{fp}		; (str fp, [sp, #-4]!)
80303118:	e28db000 	add	fp, sp, #0
8030311c:	e24dd00c 	sub	sp, sp, #12
80303120:	e3a03a09 	mov	r3, #36864	; 0x9000
80303124:	e34434e0 	movt	r3, #17632	; 0x44e0
80303128:	e50b3008 	str	r3, [fp, #-8]
8030312c:	e1a00000 	nop			; (mov r0, r0)
80303130:	e51b3008 	ldr	r3, [fp, #-8]
80303134:	e2833014 	add	r3, r3, #20
80303138:	e5d33000 	ldrb	r3, [r3]
8030313c:	e6ef3073 	uxtb	r3, r3
80303140:	e2033001 	and	r3, r3, #1
80303144:	e3530000 	cmp	r3, #0
80303148:	0afffff8 	beq	80303130 <serial_getc+0x1c>
8030314c:	e51b3008 	ldr	r3, [fp, #-8]
80303150:	e5d33000 	ldrb	r3, [r3]
80303154:	e6ef3073 	uxtb	r3, r3
80303158:	e1a00003 	mov	r0, r3
8030315c:	e24bd000 	sub	sp, fp, #0
80303160:	e49db004 	pop	{fp}		; (ldr fp, [sp], #4)
80303164:	e12fff1e 	bx	lr

80303168 <serial_tstc>:
80303168:	e52db004 	push	{fp}		; (str fp, [sp, #-4]!)
8030316c:	e28db000 	add	fp, sp, #0
80303170:	e24dd00c 	sub	sp, sp, #12
80303174:	e3a03a09 	mov	r3, #36864	; 0x9000
80303178:	e34434e0 	movt	r3, #17632	; 0x44e0
8030317c:	e50b3008 	str	r3, [fp, #-8]
80303180:	e51b3008 	ldr	r3, [fp, #-8]
80303184:	e2833014 	add	r3, r3, #20
80303188:	e5d33000 	ldrb	r3, [r3]
8030318c:	e6ef3073 	uxtb	r3, r3
80303190:	e2033001 	and	r3, r3, #1
80303194:	e1a00003 	mov	r0, r3
80303198:	e24bd000 	sub	sp, fp, #0
8030319c:	e49db004 	pop	{fp}		; (ldr fp, [sp], #4)
803031a0:	e12fff1e 	bx	lr

803031a4 <serial_puts>:
803031a4:	e92d4800 	push	{fp, lr}
803031a8:	e28db004 	add	fp, sp, #4
803031ac:	e24dd008 	sub	sp, sp, #8
803031b0:	e50b0008 	str	r0, [fp, #-8]
803031b4:	ea000005 	b	803031d0 <serial_puts+0x2c>
803031b8:	e51b3008 	ldr	r3, [fp, #-8]
803031bc:	e2832001 	add	r2, r3, #1
803031c0:	e50b2008 	str	r2, [fp, #-8]
803031c4:	e5d33000 	ldrb	r3, [r3]
803031c8:	e1a00003 	mov	r0, r3
803031cc:	ebffffb6 	bl	803030ac <serial_putc>
803031d0:	e51b3008 	ldr	r3, [fp, #-8]
803031d4:	e5d33000 	ldrb	r3, [r3]
803031d8:	e3530000 	cmp	r3, #0
803031dc:	1afffff5 	bne	803031b8 <serial_puts+0x14>
803031e0:	e24bd004 	sub	sp, fp, #4
803031e4:	e8bd8800 	pop	{fp, pc}

803031e8 <serial_int_setup>:
803031e8:	e52db004 	push	{fp}		; (str fp, [sp, #-4]!)
803031ec:	e28db000 	add	fp, sp, #0
803031f0:	e24dd00c 	sub	sp, sp, #12
803031f4:	e3a03a09 	mov	r3, #36864	; 0x9000
803031f8:	e34434e0 	movt	r3, #17632	; 0x44e0
803031fc:	e50b3008 	str	r3, [fp, #-8]
80303200:	e3083214 	movw	r3, #33300	; 0x8214
80303204:	e3483031 	movt	r3, #32817	; 0x8031
80303208:	e3a02000 	mov	r2, #0
8030320c:	e5832000 	str	r2, [r3]
80303210:	e24bd000 	sub	sp, fp, #0
80303214:	e49db004 	pop	{fp}		; (ldr fp, [sp], #4)
80303218:	e12fff1e 	bx	lr

8030321c <serial_int_test>:
8030321c:	e52db004 	push	{fp}		; (str fp, [sp, #-4]!)
80303220:	e28db000 	add	fp, sp, #0
80303224:	e24dd00c 	sub	sp, sp, #12
80303228:	e3a03a09 	mov	r3, #36864	; 0x9000
8030322c:	e34434e0 	movt	r3, #17632	; 0x44e0
80303230:	e50b3008 	str	r3, [fp, #-8]
80303234:	e3083214 	movw	r3, #33300	; 0x8214
80303238:	e3483031 	movt	r3, #32817	; 0x8031
8030323c:	e306242c 	movw	r2, #25644	; 0x642c
80303240:	e3482031 	movt	r2, #32817	; 0x8031
80303244:	e5832000 	str	r2, [r3]
80303248:	e51b3008 	ldr	r3, [fp, #-8]
8030324c:	e2833004 	add	r3, r3, #4
80303250:	e3a02002 	mov	r2, #2
80303254:	e5c32000 	strb	r2, [r3]
80303258:	e24bd000 	sub	sp, fp, #0
8030325c:	e49db004 	pop	{fp}		; (ldr fp, [sp], #4)
80303260:	e12fff1e 	bx	lr

80303264 <serial_irqack>:
80303264:	e52db004 	push	{fp}		; (str fp, [sp, #-4]!)
80303268:	e28db000 	add	fp, sp, #0
8030326c:	e24bd000 	sub	sp, fp, #0
80303270:	e49db004 	pop	{fp}		; (ldr fp, [sp], #4)
80303274:	e12fff1e 	bx	lr

80303278 <serial_int>:
80303278:	e52db004 	push	{fp}		; (str fp, [sp, #-4]!)
8030327c:	e28db000 	add	fp, sp, #0
80303280:	e24dd00c 	sub	sp, sp, #12
80303284:	e3a03a09 	mov	r3, #36864	; 0x9000
80303288:	e34434e0 	movt	r3, #17632	; 0x44e0
8030328c:	e50b3008 	str	r3, [fp, #-8]
80303290:	e3083214 	movw	r3, #33300	; 0x8214
80303294:	e3483031 	movt	r3, #32817	; 0x8031
80303298:	e5933000 	ldr	r3, [r3]
8030329c:	e3530000 	cmp	r3, #0
803032a0:	1a000004 	bne	803032b8 <serial_int+0x40>
803032a4:	e51b3008 	ldr	r3, [fp, #-8]
803032a8:	e2833004 	add	r3, r3, #4
803032ac:	e3a02000 	mov	r2, #0
803032b0:	e5c32000 	strb	r2, [r3]
803032b4:	ea000018 	b	8030331c <serial_int+0xa4>
803032b8:	e3083214 	movw	r3, #33300	; 0x8214
803032bc:	e3483031 	movt	r3, #32817	; 0x8031
803032c0:	e5933000 	ldr	r3, [r3]
803032c4:	e5d33000 	ldrb	r3, [r3]
803032c8:	e3530000 	cmp	r3, #0
803032cc:	1a000008 	bne	803032f4 <serial_int+0x7c>
803032d0:	e51b3008 	ldr	r3, [fp, #-8]
803032d4:	e2833004 	add	r3, r3, #4
803032d8:	e3a02000 	mov	r2, #0
803032dc:	e5c32000 	strb	r2, [r3]
803032e0:	e3083214 	movw	r3, #33300	; 0x8214
803032e4:	e3483031 	movt	r3, #32817	; 0x8031
803032e8:	e3a02000 	mov	r2, #0
803032ec:	e5832000 	str	r2, [r3]
803032f0:	ea000009 	b	8030331c <serial_int+0xa4>
803032f4:	e51b1008 	ldr	r1, [fp, #-8]
803032f8:	e3083214 	movw	r3, #33300	; 0x8214
803032fc:	e3483031 	movt	r3, #32817	; 0x8031
80303300:	e5932000 	ldr	r2, [r3]
80303304:	e2820001 	add	r0, r2, #1
80303308:	e3083214 	movw	r3, #33300	; 0x8214
8030330c:	e3483031 	movt	r3, #32817	; 0x8031
80303310:	e5830000 	str	r0, [r3]
80303314:	e5d23000 	ldrb	r3, [r2]
80303318:	e5c13000 	strb	r3, [r1]
8030331c:	e24bd000 	sub	sp, fp, #0
80303320:	e49db004 	pop	{fp}		; (ldr fp, [sp], #4)
80303324:	e12fff1e 	bx	lr

80303328 <gpio_init>:
80303328:	e92d4800 	push	{fp, lr}
8030332c:	e28db004 	add	fp, sp, #4
80303330:	e24dd008 	sub	sp, sp, #8
80303334:	e3a03903 	mov	r3, #49152	; 0xc000
80303338:	e3443804 	movt	r3, #18436	; 0x4804
8030333c:	e50b3008 	str	r3, [fp, #-8]
80303340:	eb000057 	bl	803034a4 <setup_led_mux>
80303344:	e51b3008 	ldr	r3, [fp, #-8]
80303348:	e5933134 	ldr	r3, [r3, #308]	; 0x134
8030334c:	e3060314 	movw	r0, #25364	; 0x6314
80303350:	e3480030 	movt	r0, #32816	; 0x8030
80303354:	e1a01003 	mov	r1, r3
80303358:	eb000414 	bl	803043b0 <printf>
8030335c:	e51b3008 	ldr	r3, [fp, #-8]
80303360:	e5933134 	ldr	r3, [r3, #308]	; 0x134
80303364:	e3c3261e 	bic	r2, r3, #31457280	; 0x1e00000
80303368:	e51b3008 	ldr	r3, [fp, #-8]
8030336c:	e5832134 	str	r2, [r3, #308]	; 0x134
80303370:	e51b3008 	ldr	r3, [fp, #-8]
80303374:	e5933134 	ldr	r3, [r3, #308]	; 0x134
80303378:	e3060314 	movw	r0, #25364	; 0x6314
8030337c:	e3480030 	movt	r0, #32816	; 0x8030
80303380:	e1a01003 	mov	r1, r3
80303384:	eb000409 	bl	803043b0 <printf>
80303388:	e24bd004 	sub	sp, fp, #4
8030338c:	e8bd8800 	pop	{fp, pc}

80303390 <gpio_test>:
80303390:	e92d4800 	push	{fp, lr}
80303394:	e28db004 	add	fp, sp, #4
80303398:	e24dd010 	sub	sp, sp, #16
8030339c:	e3a03903 	mov	r3, #49152	; 0xc000
803033a0:	e3443804 	movt	r3, #18436	; 0x4804
803033a4:	e50b3010 	str	r3, [fp, #-16]
803033a8:	e51b3010 	ldr	r3, [fp, #-16]
803033ac:	e3a0261e 	mov	r2, #31457280	; 0x1e00000
803033b0:	e5832190 	str	r2, [r3, #400]	; 0x190
803033b4:	e3a03000 	mov	r3, #0
803033b8:	e50b3008 	str	r3, [fp, #-8]
803033bc:	e306343c 	movw	r3, #25660	; 0x643c
803033c0:	e3483031 	movt	r3, #32817	; 0x8031
803033c4:	e51b2008 	ldr	r2, [fp, #-8]
803033c8:	e7933102 	ldr	r3, [r3, r2, lsl #2]
803033cc:	e1a02003 	mov	r2, r3
803033d0:	e51b3010 	ldr	r3, [fp, #-16]
803033d4:	e5832194 	str	r2, [r3, #404]	; 0x194
803033d8:	e3a03001 	mov	r3, #1
803033dc:	e50b300c 	str	r3, [fp, #-12]
803033e0:	e51b3008 	ldr	r3, [fp, #-8]
803033e4:	e3530000 	cmp	r3, #0
803033e8:	1a000006 	bne	80303408 <gpio_test+0x78>
803033ec:	e51b300c 	ldr	r3, [fp, #-12]
803033f0:	e2832001 	add	r2, r3, #1
803033f4:	e50b200c 	str	r2, [fp, #-12]
803033f8:	e3060328 	movw	r0, #25384	; 0x6328
803033fc:	e3480030 	movt	r0, #32816	; 0x8030
80303400:	e1a01003 	mov	r1, r3
80303404:	eb0003e9 	bl	803043b0 <printf>
80303408:	e306343c 	movw	r3, #25660	; 0x643c
8030340c:	e3483031 	movt	r3, #32817	; 0x8031
80303410:	e51b2008 	ldr	r2, [fp, #-8]
80303414:	e7933102 	ldr	r3, [r3, r2, lsl #2]
80303418:	e1a02003 	mov	r2, r3
8030341c:	e51b3010 	ldr	r3, [fp, #-16]
80303420:	e5832190 	str	r2, [r3, #400]	; 0x190
80303424:	e51b3008 	ldr	r3, [fp, #-8]
80303428:	e2832001 	add	r2, r3, #1
8030342c:	e1a03fc2 	asr	r3, r2, #31
80303430:	e1a03f23 	lsr	r3, r3, #30
80303434:	e0822003 	add	r2, r2, r3
80303438:	e2022003 	and	r2, r2, #3
8030343c:	e0633002 	rsb	r3, r3, r2
80303440:	e50b3008 	str	r3, [fp, #-8]
80303444:	e306343c 	movw	r3, #25660	; 0x643c
80303448:	e3483031 	movt	r3, #32817	; 0x8031
8030344c:	e51b2008 	ldr	r2, [fp, #-8]
80303450:	e7933102 	ldr	r3, [r3, r2, lsl #2]
80303454:	e1a02003 	mov	r2, r3
80303458:	e51b3010 	ldr	r3, [fp, #-16]
8030345c:	e5832194 	str	r2, [r3, #404]	; 0x194
80303460:	ebfffd76 	bl	80302a40 <delay10>
80303464:	eaffffdd 	b	803033e0 <gpio_test+0x50>

80303468 <setup_uart0_mux>:
80303468:	e52db004 	push	{fp}		; (str fp, [sp, #-4]!)
8030346c:	e28db000 	add	fp, sp, #0
80303470:	e24dd00c 	sub	sp, sp, #12
80303474:	e3a03b02 	mov	r3, #2048	; 0x800
80303478:	e34434e1 	movt	r3, #17633	; 0x44e1
8030347c:	e50b3008 	str	r3, [fp, #-8]
80303480:	e51b3008 	ldr	r3, [fp, #-8]
80303484:	e3a02030 	mov	r2, #48	; 0x30
80303488:	e5832170 	str	r2, [r3, #368]	; 0x170
8030348c:	e51b3008 	ldr	r3, [fp, #-8]
80303490:	e3a02000 	mov	r2, #0
80303494:	e5832174 	str	r2, [r3, #372]	; 0x174
80303498:	e24bd000 	sub	sp, fp, #0
8030349c:	e49db004 	pop	{fp}		; (ldr fp, [sp], #4)
803034a0:	e12fff1e 	bx	lr

803034a4 <setup_led_mux>:
803034a4:	e52db004 	push	{fp}		; (str fp, [sp, #-4]!)
803034a8:	e28db000 	add	fp, sp, #0
803034ac:	e24dd00c 	sub	sp, sp, #12
803034b0:	e3a03b02 	mov	r3, #2048	; 0x800
803034b4:	e34434e1 	movt	r3, #17633	; 0x44e1
803034b8:	e50b3008 	str	r3, [fp, #-8]
803034bc:	e51b3008 	ldr	r3, [fp, #-8]
803034c0:	e3a0200f 	mov	r2, #15
803034c4:	e5832054 	str	r2, [r3, #84]	; 0x54
803034c8:	e51b3008 	ldr	r3, [fp, #-8]
803034cc:	e3a0200f 	mov	r2, #15
803034d0:	e5832058 	str	r2, [r3, #88]	; 0x58
803034d4:	e51b3008 	ldr	r3, [fp, #-8]
803034d8:	e3a0200f 	mov	r2, #15
803034dc:	e583205c 	str	r2, [r3, #92]	; 0x5c
803034e0:	e51b3008 	ldr	r3, [fp, #-8]
803034e4:	e3a0200f 	mov	r2, #15
803034e8:	e5832060 	str	r2, [r3, #96]	; 0x60
803034ec:	e24bd000 	sub	sp, fp, #0
803034f0:	e49db004 	pop	{fp}		; (ldr fp, [sp], #4)
803034f4:	e12fff1e 	bx	lr

803034f8 <shex2>:
803034f8:	e52db004 	push	{fp}		; (str fp, [sp, #-4]!)
803034fc:	e28db000 	add	fp, sp, #0
80303500:	e24dd014 	sub	sp, sp, #20
80303504:	e50b0008 	str	r0, [fp, #-8]
80303508:	e50b100c 	str	r1, [fp, #-12]
8030350c:	e50b2010 	str	r2, [fp, #-16]
80303510:	e51b2008 	ldr	r2, [fp, #-8]
80303514:	e51b300c 	ldr	r3, [fp, #-12]
80303518:	e1520003 	cmp	r2, r3
8030351c:	8a000017 	bhi	80303580 <shex2+0x88>
80303520:	e51b3008 	ldr	r3, [fp, #-8]
80303524:	e2832001 	add	r2, r3, #1
80303528:	e50b2008 	str	r2, [fp, #-8]
8030352c:	e51b2010 	ldr	r2, [fp, #-16]
80303530:	e1a02242 	asr	r2, r2, #4
80303534:	e202200f 	and	r2, r2, #15
80303538:	e3520009 	cmp	r2, #9
8030353c:	ca000007 	bgt	80303560 <shex2+0x68>
80303540:	e51b2010 	ldr	r2, [fp, #-16]
80303544:	e1a02242 	asr	r2, r2, #4
80303548:	e6ef2072 	uxtb	r2, r2
8030354c:	e202200f 	and	r2, r2, #15
80303550:	e6ef2072 	uxtb	r2, r2
80303554:	e2822030 	add	r2, r2, #48	; 0x30
80303558:	e6ef2072 	uxtb	r2, r2
8030355c:	ea000006 	b	8030357c <shex2+0x84>
80303560:	e51b2010 	ldr	r2, [fp, #-16]
80303564:	e1a02242 	asr	r2, r2, #4
80303568:	e6ef2072 	uxtb	r2, r2
8030356c:	e202200f 	and	r2, r2, #15
80303570:	e6ef2072 	uxtb	r2, r2
80303574:	e2822037 	add	r2, r2, #55	; 0x37
80303578:	e6ef2072 	uxtb	r2, r2
8030357c:	e5c32000 	strb	r2, [r3]
80303580:	e51b2008 	ldr	r2, [fp, #-8]
80303584:	e51b300c 	ldr	r3, [fp, #-12]
80303588:	e1520003 	cmp	r2, r3
8030358c:	8a000014 	bhi	803035e4 <shex2+0xec>
80303590:	e51b3008 	ldr	r3, [fp, #-8]
80303594:	e2832001 	add	r2, r3, #1
80303598:	e50b2008 	str	r2, [fp, #-8]
8030359c:	e51b2010 	ldr	r2, [fp, #-16]
803035a0:	e202200f 	and	r2, r2, #15
803035a4:	e3520009 	cmp	r2, #9
803035a8:	ca000006 	bgt	803035c8 <shex2+0xd0>
803035ac:	e51b2010 	ldr	r2, [fp, #-16]
803035b0:	e6ef2072 	uxtb	r2, r2
803035b4:	e202200f 	and	r2, r2, #15
803035b8:	e6ef2072 	uxtb	r2, r2
803035bc:	e2822030 	add	r2, r2, #48	; 0x30
803035c0:	e6ef2072 	uxtb	r2, r2
803035c4:	ea000005 	b	803035e0 <shex2+0xe8>
803035c8:	e51b2010 	ldr	r2, [fp, #-16]
803035cc:	e6ef2072 	uxtb	r2, r2
803035d0:	e202200f 	and	r2, r2, #15
803035d4:	e6ef2072 	uxtb	r2, r2
803035d8:	e2822037 	add	r2, r2, #55	; 0x37
803035dc:	e6ef2072 	uxtb	r2, r2
803035e0:	e5c32000 	strb	r2, [r3]
803035e4:	e51b3008 	ldr	r3, [fp, #-8]
803035e8:	e1a00003 	mov	r0, r3
803035ec:	e24bd000 	sub	sp, fp, #0
803035f0:	e49db004 	pop	{fp}		; (ldr fp, [sp], #4)
803035f4:	e12fff1e 	bx	lr

803035f8 <shex3>:
803035f8:	e92d4800 	push	{fp, lr}
803035fc:	e28db004 	add	fp, sp, #4
80303600:	e24dd010 	sub	sp, sp, #16
80303604:	e50b0008 	str	r0, [fp, #-8]
80303608:	e50b100c 	str	r1, [fp, #-12]
8030360c:	e50b2010 	str	r2, [fp, #-16]
80303610:	e51b2008 	ldr	r2, [fp, #-8]
80303614:	e51b300c 	ldr	r3, [fp, #-12]
80303618:	e1520003 	cmp	r2, r3
8030361c:	8a000017 	bhi	80303680 <shex3+0x88>
80303620:	e51b3008 	ldr	r3, [fp, #-8]
80303624:	e2832001 	add	r2, r3, #1
80303628:	e50b2008 	str	r2, [fp, #-8]
8030362c:	e51b2010 	ldr	r2, [fp, #-16]
80303630:	e1a02442 	asr	r2, r2, #8
80303634:	e202200f 	and	r2, r2, #15
80303638:	e3520009 	cmp	r2, #9
8030363c:	ca000007 	bgt	80303660 <shex3+0x68>
80303640:	e51b2010 	ldr	r2, [fp, #-16]
80303644:	e1a02442 	asr	r2, r2, #8
80303648:	e6ef2072 	uxtb	r2, r2
8030364c:	e202200f 	and	r2, r2, #15
80303650:	e6ef2072 	uxtb	r2, r2
80303654:	e2822030 	add	r2, r2, #48	; 0x30
80303658:	e6ef2072 	uxtb	r2, r2
8030365c:	ea000006 	b	8030367c <shex3+0x84>
80303660:	e51b2010 	ldr	r2, [fp, #-16]
80303664:	e1a02442 	asr	r2, r2, #8
80303668:	e6ef2072 	uxtb	r2, r2
8030366c:	e202200f 	and	r2, r2, #15
80303670:	e6ef2072 	uxtb	r2, r2
80303674:	e2822037 	add	r2, r2, #55	; 0x37
80303678:	e6ef2072 	uxtb	r2, r2
8030367c:	e5c32000 	strb	r2, [r3]
80303680:	e51b0008 	ldr	r0, [fp, #-8]
80303684:	e51b100c 	ldr	r1, [fp, #-12]
80303688:	e51b2010 	ldr	r2, [fp, #-16]
8030368c:	ebffff99 	bl	803034f8 <shex2>
80303690:	e1a03000 	mov	r3, r0
80303694:	e1a00003 	mov	r0, r3
80303698:	e24bd004 	sub	sp, fp, #4
8030369c:	e8bd8800 	pop	{fp, pc}

803036a0 <shex4>:
803036a0:	e92d4800 	push	{fp, lr}
803036a4:	e28db004 	add	fp, sp, #4
803036a8:	e24dd010 	sub	sp, sp, #16
803036ac:	e50b0008 	str	r0, [fp, #-8]
803036b0:	e50b100c 	str	r1, [fp, #-12]
803036b4:	e50b2010 	str	r2, [fp, #-16]
803036b8:	e51b3010 	ldr	r3, [fp, #-16]
803036bc:	e1a03443 	asr	r3, r3, #8
803036c0:	e51b0008 	ldr	r0, [fp, #-8]
803036c4:	e51b100c 	ldr	r1, [fp, #-12]
803036c8:	e1a02003 	mov	r2, r3
803036cc:	ebffff89 	bl	803034f8 <shex2>
803036d0:	e50b0008 	str	r0, [fp, #-8]
803036d4:	e51b0008 	ldr	r0, [fp, #-8]
803036d8:	e51b100c 	ldr	r1, [fp, #-12]
803036dc:	e51b2010 	ldr	r2, [fp, #-16]
803036e0:	ebffff84 	bl	803034f8 <shex2>
803036e4:	e1a03000 	mov	r3, r0
803036e8:	e1a00003 	mov	r0, r3
803036ec:	e24bd004 	sub	sp, fp, #4
803036f0:	e8bd8800 	pop	{fp, pc}

803036f4 <shex8>:
803036f4:	e92d4800 	push	{fp, lr}
803036f8:	e28db004 	add	fp, sp, #4
803036fc:	e24dd010 	sub	sp, sp, #16
80303700:	e50b0008 	str	r0, [fp, #-8]
80303704:	e50b100c 	str	r1, [fp, #-12]
80303708:	e50b2010 	str	r2, [fp, #-16]
8030370c:	e51b3010 	ldr	r3, [fp, #-16]
80303710:	e1a03c43 	asr	r3, r3, #24
80303714:	e51b0008 	ldr	r0, [fp, #-8]
80303718:	e51b100c 	ldr	r1, [fp, #-12]
8030371c:	e1a02003 	mov	r2, r3
80303720:	ebffff74 	bl	803034f8 <shex2>
80303724:	e50b0008 	str	r0, [fp, #-8]
80303728:	e51b3010 	ldr	r3, [fp, #-16]
8030372c:	e1a03843 	asr	r3, r3, #16
80303730:	e51b0008 	ldr	r0, [fp, #-8]
80303734:	e51b100c 	ldr	r1, [fp, #-12]
80303738:	e1a02003 	mov	r2, r3
8030373c:	ebffff6d 	bl	803034f8 <shex2>
80303740:	e50b0008 	str	r0, [fp, #-8]
80303744:	e51b3010 	ldr	r3, [fp, #-16]
80303748:	e1a03443 	asr	r3, r3, #8
8030374c:	e51b0008 	ldr	r0, [fp, #-8]
80303750:	e51b100c 	ldr	r1, [fp, #-12]
80303754:	e1a02003 	mov	r2, r3
80303758:	ebffff66 	bl	803034f8 <shex2>
8030375c:	e50b0008 	str	r0, [fp, #-8]
80303760:	e51b0008 	ldr	r0, [fp, #-8]
80303764:	e51b100c 	ldr	r1, [fp, #-12]
80303768:	e51b2010 	ldr	r2, [fp, #-16]
8030376c:	ebffff61 	bl	803034f8 <shex2>
80303770:	e1a03000 	mov	r3, r0
80303774:	e1a00003 	mov	r0, r3
80303778:	e24bd004 	sub	sp, fp, #4
8030377c:	e8bd8800 	pop	{fp, pc}

80303780 <sprintn>:
80303780:	e92d4830 	push	{r4, r5, fp, lr}
80303784:	e28db00c 	add	fp, sp, #12
80303788:	e24dd020 	sub	sp, sp, #32
8030378c:	e50b0020 	str	r0, [fp, #-32]	; 0xffffffe0
80303790:	e50b1024 	str	r1, [fp, #-36]	; 0xffffffdc
80303794:	e50b2028 	str	r2, [fp, #-40]	; 0xffffffd8
80303798:	e50b302c 	str	r3, [fp, #-44]	; 0xffffffd4
8030379c:	e51b302c 	ldr	r3, [fp, #-44]	; 0xffffffd4
803037a0:	e353000a 	cmp	r3, #10
803037a4:	1a00000e 	bne	803037e4 <sprintn+0x64>
803037a8:	e51b3028 	ldr	r3, [fp, #-40]	; 0xffffffd8
803037ac:	e3530000 	cmp	r3, #0
803037b0:	aa00000b 	bge	803037e4 <sprintn+0x64>
803037b4:	e51b2020 	ldr	r2, [fp, #-32]	; 0xffffffe0
803037b8:	e51b3024 	ldr	r3, [fp, #-36]	; 0xffffffdc
803037bc:	e1520003 	cmp	r2, r3
803037c0:	8a000004 	bhi	803037d8 <sprintn+0x58>
803037c4:	e51b3020 	ldr	r3, [fp, #-32]	; 0xffffffe0
803037c8:	e2832001 	add	r2, r3, #1
803037cc:	e50b2020 	str	r2, [fp, #-32]	; 0xffffffe0
803037d0:	e3a0202d 	mov	r2, #45	; 0x2d
803037d4:	e5c32000 	strb	r2, [r3]
803037d8:	e51b3028 	ldr	r3, [fp, #-40]	; 0xffffffd8
803037dc:	e2633000 	rsb	r3, r3, #0
803037e0:	e50b3028 	str	r3, [fp, #-40]	; 0xffffffd8
803037e4:	e24b4018 	sub	r4, fp, #24
803037e8:	e1a05004 	mov	r5, r4
803037ec:	e2854001 	add	r4, r5, #1
803037f0:	e51b3028 	ldr	r3, [fp, #-40]	; 0xffffffd8
803037f4:	e1a00003 	mov	r0, r3
803037f8:	e51b102c 	ldr	r1, [fp, #-44]	; 0xffffffd4
803037fc:	eb0007a7 	bl	803056a0 <__aeabi_idivmod>
80303800:	e1a03001 	mov	r3, r1
80303804:	e1a02003 	mov	r2, r3
80303808:	e3063334 	movw	r3, #25396	; 0x6334
8030380c:	e3483030 	movt	r3, #32816	; 0x8030
80303810:	e7d33002 	ldrb	r3, [r3, r2]
80303814:	e5c53000 	strb	r3, [r5]
80303818:	e51b0028 	ldr	r0, [fp, #-40]	; 0xffffffd8
8030381c:	e51b102c 	ldr	r1, [fp, #-44]	; 0xffffffd4
80303820:	eb000716 	bl	80305480 <__aeabi_idiv>
80303824:	e1a03000 	mov	r3, r0
80303828:	e50b3028 	str	r3, [fp, #-40]	; 0xffffffd8
8030382c:	e51b3028 	ldr	r3, [fp, #-40]	; 0xffffffd8
80303830:	e3530000 	cmp	r3, #0
80303834:	1affffeb 	bne	803037e8 <sprintn+0x68>
80303838:	e51b2020 	ldr	r2, [fp, #-32]	; 0xffffffe0
8030383c:	e51b3024 	ldr	r3, [fp, #-36]	; 0xffffffdc
80303840:	e1520003 	cmp	r2, r3
80303844:	8a000005 	bhi	80303860 <sprintn+0xe0>
80303848:	e51b3020 	ldr	r3, [fp, #-32]	; 0xffffffe0
8030384c:	e2832001 	add	r2, r3, #1
80303850:	e50b2020 	str	r2, [fp, #-32]	; 0xffffffe0
80303854:	e2444001 	sub	r4, r4, #1
80303858:	e5d42000 	ldrb	r2, [r4]
8030385c:	e5c32000 	strb	r2, [r3]
80303860:	e24b3018 	sub	r3, fp, #24
80303864:	e1540003 	cmp	r4, r3
80303868:	8afffff2 	bhi	80303838 <sprintn+0xb8>
8030386c:	e51b3020 	ldr	r3, [fp, #-32]	; 0xffffffe0
80303870:	e1a00003 	mov	r0, r3
80303874:	e24bd00c 	sub	sp, fp, #12
80303878:	e8bd8830 	pop	{r4, r5, fp, pc}

8030387c <sprintu>:
8030387c:	e92d4830 	push	{r4, r5, fp, lr}
80303880:	e28db00c 	add	fp, sp, #12
80303884:	e24dd020 	sub	sp, sp, #32
80303888:	e50b0020 	str	r0, [fp, #-32]	; 0xffffffe0
8030388c:	e50b1024 	str	r1, [fp, #-36]	; 0xffffffdc
80303890:	e50b2028 	str	r2, [fp, #-40]	; 0xffffffd8
80303894:	e50b302c 	str	r3, [fp, #-44]	; 0xffffffd4
80303898:	e24b4018 	sub	r4, fp, #24
8030389c:	e1a05004 	mov	r5, r4
803038a0:	e2854001 	add	r4, r5, #1
803038a4:	e51b302c 	ldr	r3, [fp, #-44]	; 0xffffffd4
803038a8:	e51b2028 	ldr	r2, [fp, #-40]	; 0xffffffd8
803038ac:	e1a00002 	mov	r0, r2
803038b0:	e1a01003 	mov	r1, r3
803038b4:	eb0006e9 	bl	80305460 <__aeabi_uidivmod>
803038b8:	e1a03001 	mov	r3, r1
803038bc:	e1a02003 	mov	r2, r3
803038c0:	e3063334 	movw	r3, #25396	; 0x6334
803038c4:	e3483030 	movt	r3, #32816	; 0x8030
803038c8:	e7d33002 	ldrb	r3, [r3, r2]
803038cc:	e5c53000 	strb	r3, [r5]
803038d0:	e51b302c 	ldr	r3, [fp, #-44]	; 0xffffffd4
803038d4:	e51b0028 	ldr	r0, [fp, #-40]	; 0xffffffd8
803038d8:	e1a01003 	mov	r1, r3
803038dc:	eb000664 	bl	80305274 <__aeabi_uidiv>
803038e0:	e1a03000 	mov	r3, r0
803038e4:	e50b3028 	str	r3, [fp, #-40]	; 0xffffffd8
803038e8:	e51b3028 	ldr	r3, [fp, #-40]	; 0xffffffd8
803038ec:	e3530000 	cmp	r3, #0
803038f0:	1affffe9 	bne	8030389c <sprintu+0x20>
803038f4:	e51b2020 	ldr	r2, [fp, #-32]	; 0xffffffe0
803038f8:	e51b3024 	ldr	r3, [fp, #-36]	; 0xffffffdc
803038fc:	e1520003 	cmp	r2, r3
80303900:	8a000005 	bhi	8030391c <sprintu+0xa0>
80303904:	e51b3020 	ldr	r3, [fp, #-32]	; 0xffffffe0
80303908:	e2832001 	add	r2, r3, #1
8030390c:	e50b2020 	str	r2, [fp, #-32]	; 0xffffffe0
80303910:	e2444001 	sub	r4, r4, #1
80303914:	e5d42000 	ldrb	r2, [r4]
80303918:	e5c32000 	strb	r2, [r3]
8030391c:	e24b3018 	sub	r3, fp, #24
80303920:	e1540003 	cmp	r4, r3
80303924:	8afffff2 	bhi	803038f4 <sprintu+0x78>
80303928:	e51b3020 	ldr	r3, [fp, #-32]	; 0xffffffe0
8030392c:	e1a00003 	mov	r0, r3
80303930:	e24bd00c 	sub	sp, fp, #12
80303934:	e8bd8830 	pop	{r4, r5, fp, pc}

80303938 <snprintf>:
80303938:	e92d000c 	push	{r2, r3}
8030393c:	e92d4800 	push	{fp, lr}
80303940:	e28db004 	add	fp, sp, #4
80303944:	e24dd010 	sub	sp, sp, #16
80303948:	e50b0010 	str	r0, [fp, #-16]
8030394c:	e50b1014 	str	r1, [fp, #-20]	; 0xffffffec
80303950:	e28b3008 	add	r3, fp, #8
80303954:	e50b300c 	str	r3, [fp, #-12]
80303958:	e51b0010 	ldr	r0, [fp, #-16]
8030395c:	e51b1014 	ldr	r1, [fp, #-20]	; 0xffffffec
80303960:	e59b2004 	ldr	r2, [fp, #4]
80303964:	e51b300c 	ldr	r3, [fp, #-12]
80303968:	eb000027 	bl	80303a0c <vsnprintf>
8030396c:	e50b0008 	str	r0, [fp, #-8]
80303970:	e51b3008 	ldr	r3, [fp, #-8]
80303974:	e1a00003 	mov	r0, r3
80303978:	e24bd004 	sub	sp, fp, #4
8030397c:	e8bd4800 	pop	{fp, lr}
80303980:	e28dd008 	add	sp, sp, #8
80303984:	e12fff1e 	bx	lr

80303988 <sprintf>:
80303988:	e92d000e 	push	{r1, r2, r3}
8030398c:	e92d4800 	push	{fp, lr}
80303990:	e28db004 	add	fp, sp, #4
80303994:	e24dd014 	sub	sp, sp, #20
80303998:	e50b0014 	str	r0, [fp, #-20]	; 0xffffffec
8030399c:	e28b3008 	add	r3, fp, #8
803039a0:	e50b3010 	str	r3, [fp, #-16]
803039a4:	e51b0014 	ldr	r0, [fp, #-20]	; 0xffffffec
803039a8:	e59b1004 	ldr	r1, [fp, #4]
803039ac:	e51b2010 	ldr	r2, [fp, #-16]
803039b0:	eb000006 	bl	803039d0 <vsprintf>
803039b4:	e50b000c 	str	r0, [fp, #-12]
803039b8:	e51b300c 	ldr	r3, [fp, #-12]
803039bc:	e1a00003 	mov	r0, r3
803039c0:	e24bd004 	sub	sp, fp, #4
803039c4:	e8bd4800 	pop	{fp, lr}
803039c8:	e28dd00c 	add	sp, sp, #12
803039cc:	e12fff1e 	bx	lr

803039d0 <vsprintf>:
803039d0:	e92d4800 	push	{fp, lr}
803039d4:	e28db004 	add	fp, sp, #4
803039d8:	e24dd010 	sub	sp, sp, #16
803039dc:	e50b0008 	str	r0, [fp, #-8]
803039e0:	e50b100c 	str	r1, [fp, #-12]
803039e4:	e50b2010 	str	r2, [fp, #-16]
803039e8:	e51b0008 	ldr	r0, [fp, #-8]
803039ec:	e3e0120f 	mvn	r1, #-268435456	; 0xf0000000
803039f0:	e51b200c 	ldr	r2, [fp, #-12]
803039f4:	e51b3010 	ldr	r3, [fp, #-16]
803039f8:	eb000003 	bl	80303a0c <vsnprintf>
803039fc:	e1a03000 	mov	r3, r0
80303a00:	e1a00003 	mov	r0, r3
80303a04:	e24bd004 	sub	sp, fp, #4
80303a08:	e8bd8800 	pop	{fp, pc}

80303a0c <vsnprintf>:
80303a0c:	e92d4800 	push	{fp, lr}
80303a10:	e28db004 	add	fp, sp, #4
80303a14:	e24dd040 	sub	sp, sp, #64	; 0x40
80303a18:	e50b0038 	str	r0, [fp, #-56]	; 0xffffffc8
80303a1c:	e50b103c 	str	r1, [fp, #-60]	; 0xffffffc4
80303a20:	e50b2040 	str	r2, [fp, #-64]	; 0xffffffc0
80303a24:	e50b3044 	str	r3, [fp, #-68]	; 0xffffffbc
80303a28:	e51b3038 	ldr	r3, [fp, #-56]	; 0xffffffc8
80303a2c:	e50b3008 	str	r3, [fp, #-8]
80303a30:	e51b303c 	ldr	r3, [fp, #-60]	; 0xffffffc4
80303a34:	e2433001 	sub	r3, r3, #1
80303a38:	e51b2008 	ldr	r2, [fp, #-8]
80303a3c:	e0823003 	add	r3, r2, r3
80303a40:	e50b300c 	str	r3, [fp, #-12]
80303a44:	e51b3008 	ldr	r3, [fp, #-8]
80303a48:	e2432001 	sub	r2, r3, #1
80303a4c:	e51b300c 	ldr	r3, [fp, #-12]
80303a50:	e1520003 	cmp	r2, r3
80303a54:	9a000006 	bls	80303a74 <vsnprintf+0x68>
80303a58:	e3e03000 	mvn	r3, #0
80303a5c:	e50b300c 	str	r3, [fp, #-12]
80303a60:	e51b200c 	ldr	r2, [fp, #-12]
80303a64:	e51b3008 	ldr	r3, [fp, #-8]
80303a68:	e0633002 	rsb	r3, r3, r2
80303a6c:	e2833001 	add	r3, r3, #1
80303a70:	e50b303c 	str	r3, [fp, #-60]	; 0xffffffc4
80303a74:	ea000178 	b	8030405c <vsnprintf+0x650>
80303a78:	e51b3024 	ldr	r3, [fp, #-36]	; 0xffffffdc
80303a7c:	e3530025 	cmp	r3, #37	; 0x25
80303a80:	0a00000a 	beq	80303ab0 <vsnprintf+0xa4>
80303a84:	e51b2008 	ldr	r2, [fp, #-8]
80303a88:	e51b300c 	ldr	r3, [fp, #-12]
80303a8c:	e1520003 	cmp	r2, r3
80303a90:	8a000005 	bhi	80303aac <vsnprintf+0xa0>
80303a94:	e51b3008 	ldr	r3, [fp, #-8]
80303a98:	e2832001 	add	r2, r3, #1
80303a9c:	e50b2008 	str	r2, [fp, #-8]
80303aa0:	e51b2024 	ldr	r2, [fp, #-36]	; 0xffffffdc
80303aa4:	e6ef2072 	uxtb	r2, r2
80303aa8:	e5c32000 	strb	r2, [r3]
80303aac:	ea00016a 	b	8030405c <vsnprintf+0x650>
80303ab0:	e3a03000 	mov	r3, #0
80303ab4:	e50b3028 	str	r3, [fp, #-40]	; 0xffffffd8
80303ab8:	e3a03000 	mov	r3, #0
80303abc:	e50b302c 	str	r3, [fp, #-44]	; 0xffffffd4
80303ac0:	e3a03000 	mov	r3, #0
80303ac4:	e50b3030 	str	r3, [fp, #-48]	; 0xffffffd0
80303ac8:	e51b3040 	ldr	r3, [fp, #-64]	; 0xffffffc0
80303acc:	e5d33000 	ldrb	r3, [r3]
80303ad0:	e3530023 	cmp	r3, #35	; 0x23
80303ad4:	1a000004 	bne	80303aec <vsnprintf+0xe0>
80303ad8:	e3a03001 	mov	r3, #1
80303adc:	e50b3030 	str	r3, [fp, #-48]	; 0xffffffd0
80303ae0:	e51b3040 	ldr	r3, [fp, #-64]	; 0xffffffc0
80303ae4:	e2833001 	add	r3, r3, #1
80303ae8:	e50b3040 	str	r3, [fp, #-64]	; 0xffffffc0
80303aec:	e3a03000 	mov	r3, #0
80303af0:	e50b301c 	str	r3, [fp, #-28]	; 0xffffffe4
80303af4:	ea000012 	b	80303b44 <vsnprintf+0x138>
80303af8:	e51b201c 	ldr	r2, [fp, #-28]	; 0xffffffe4
80303afc:	e1a03002 	mov	r3, r2
80303b00:	e1a03103 	lsl	r3, r3, #2
80303b04:	e0833002 	add	r3, r3, r2
80303b08:	e1a03083 	lsl	r3, r3, #1
80303b0c:	e1a02003 	mov	r2, r3
80303b10:	e51b3040 	ldr	r3, [fp, #-64]	; 0xffffffc0
80303b14:	e5d33000 	ldrb	r3, [r3]
80303b18:	e2433030 	sub	r3, r3, #48	; 0x30
80303b1c:	e0823003 	add	r3, r2, r3
80303b20:	e50b301c 	str	r3, [fp, #-28]	; 0xffffffe4
80303b24:	e51b301c 	ldr	r3, [fp, #-28]	; 0xffffffe4
80303b28:	e3530000 	cmp	r3, #0
80303b2c:	1a000001 	bne	80303b38 <vsnprintf+0x12c>
80303b30:	e3a03001 	mov	r3, #1
80303b34:	e50b3028 	str	r3, [fp, #-40]	; 0xffffffd8
80303b38:	e51b3040 	ldr	r3, [fp, #-64]	; 0xffffffc0
80303b3c:	e2833001 	add	r3, r3, #1
80303b40:	e50b3040 	str	r3, [fp, #-64]	; 0xffffffc0
80303b44:	e51b3040 	ldr	r3, [fp, #-64]	; 0xffffffc0
80303b48:	e5d33000 	ldrb	r3, [r3]
80303b4c:	e353002f 	cmp	r3, #47	; 0x2f
80303b50:	9a000003 	bls	80303b64 <vsnprintf+0x158>
80303b54:	e51b3040 	ldr	r3, [fp, #-64]	; 0xffffffc0
80303b58:	e5d33000 	ldrb	r3, [r3]
80303b5c:	e3530039 	cmp	r3, #57	; 0x39
80303b60:	9affffe4 	bls	80303af8 <vsnprintf+0xec>
80303b64:	e51b3040 	ldr	r3, [fp, #-64]	; 0xffffffc0
80303b68:	e5d33000 	ldrb	r3, [r3]
80303b6c:	e353002e 	cmp	r3, #46	; 0x2e
80303b70:	1a00001b 	bne	80303be4 <vsnprintf+0x1d8>
80303b74:	e51b3040 	ldr	r3, [fp, #-64]	; 0xffffffc0
80303b78:	e2833001 	add	r3, r3, #1
80303b7c:	e50b3040 	str	r3, [fp, #-64]	; 0xffffffc0
80303b80:	e3a03000 	mov	r3, #0
80303b84:	e50b3020 	str	r3, [fp, #-32]	; 0xffffffe0
80303b88:	ea00000d 	b	80303bc4 <vsnprintf+0x1b8>
80303b8c:	e51b2020 	ldr	r2, [fp, #-32]	; 0xffffffe0
80303b90:	e1a03002 	mov	r3, r2
80303b94:	e1a03103 	lsl	r3, r3, #2
80303b98:	e0833002 	add	r3, r3, r2
80303b9c:	e1a03083 	lsl	r3, r3, #1
80303ba0:	e1a02003 	mov	r2, r3
80303ba4:	e51b3040 	ldr	r3, [fp, #-64]	; 0xffffffc0
80303ba8:	e5d33000 	ldrb	r3, [r3]
80303bac:	e2433030 	sub	r3, r3, #48	; 0x30
80303bb0:	e0823003 	add	r3, r2, r3
80303bb4:	e50b3020 	str	r3, [fp, #-32]	; 0xffffffe0
80303bb8:	e51b3040 	ldr	r3, [fp, #-64]	; 0xffffffc0
80303bbc:	e2833001 	add	r3, r3, #1
80303bc0:	e50b3040 	str	r3, [fp, #-64]	; 0xffffffc0
80303bc4:	e51b3040 	ldr	r3, [fp, #-64]	; 0xffffffc0
80303bc8:	e5d33000 	ldrb	r3, [r3]
80303bcc:	e353002f 	cmp	r3, #47	; 0x2f
80303bd0:	9a000003 	bls	80303be4 <vsnprintf+0x1d8>
80303bd4:	e51b3040 	ldr	r3, [fp, #-64]	; 0xffffffc0
80303bd8:	e5d33000 	ldrb	r3, [r3]
80303bdc:	e3530039 	cmp	r3, #57	; 0x39
80303be0:	9affffe9 	bls	80303b8c <vsnprintf+0x180>
80303be4:	e51b3040 	ldr	r3, [fp, #-64]	; 0xffffffc0
80303be8:	e5d33000 	ldrb	r3, [r3]
80303bec:	e353006c 	cmp	r3, #108	; 0x6c
80303bf0:	1a000004 	bne	80303c08 <vsnprintf+0x1fc>
80303bf4:	e3a03000 	mov	r3, #0
80303bf8:	e50b302c 	str	r3, [fp, #-44]	; 0xffffffd4
80303bfc:	e51b3040 	ldr	r3, [fp, #-64]	; 0xffffffc0
80303c00:	e2833001 	add	r3, r3, #1
80303c04:	e50b3040 	str	r3, [fp, #-64]	; 0xffffffc0
80303c08:	e51b3040 	ldr	r3, [fp, #-64]	; 0xffffffc0
80303c0c:	e5d33000 	ldrb	r3, [r3]
80303c10:	e353007a 	cmp	r3, #122	; 0x7a
80303c14:	0a000003 	beq	80303c28 <vsnprintf+0x21c>
80303c18:	e51b3040 	ldr	r3, [fp, #-64]	; 0xffffffc0
80303c1c:	e5d33000 	ldrb	r3, [r3]
80303c20:	e353005a 	cmp	r3, #90	; 0x5a
80303c24:	1a000004 	bne	80303c3c <vsnprintf+0x230>
80303c28:	e3a03000 	mov	r3, #0
80303c2c:	e50b302c 	str	r3, [fp, #-44]	; 0xffffffd4
80303c30:	e51b3040 	ldr	r3, [fp, #-64]	; 0xffffffc0
80303c34:	e2833001 	add	r3, r3, #1
80303c38:	e50b3040 	str	r3, [fp, #-64]	; 0xffffffc0
80303c3c:	e51b3040 	ldr	r3, [fp, #-64]	; 0xffffffc0
80303c40:	e5d33000 	ldrb	r3, [r3]
80303c44:	e3530000 	cmp	r3, #0
80303c48:	1a00000a 	bne	80303c78 <vsnprintf+0x26c>
80303c4c:	e51b2008 	ldr	r2, [fp, #-8]
80303c50:	e51b300c 	ldr	r3, [fp, #-12]
80303c54:	e1520003 	cmp	r2, r3
80303c58:	8a000005 	bhi	80303c74 <vsnprintf+0x268>
80303c5c:	e51b3008 	ldr	r3, [fp, #-8]
80303c60:	e2832001 	add	r2, r3, #1
80303c64:	e50b2008 	str	r2, [fp, #-8]
80303c68:	e3a02025 	mov	r2, #37	; 0x25
80303c6c:	e5c32000 	strb	r2, [r3]
80303c70:	ea000113 	b	803040c4 <vsnprintf+0x6b8>
80303c74:	ea000112 	b	803040c4 <vsnprintf+0x6b8>
80303c78:	e51b3040 	ldr	r3, [fp, #-64]	; 0xffffffc0
80303c7c:	e2832001 	add	r2, r3, #1
80303c80:	e50b2040 	str	r2, [fp, #-64]	; 0xffffffc0
80303c84:	e5d33000 	ldrb	r3, [r3]
80303c88:	e50b3024 	str	r3, [fp, #-36]	; 0xffffffdc
80303c8c:	e51b3024 	ldr	r3, [fp, #-36]	; 0xffffffdc
80303c90:	e2433044 	sub	r3, r3, #68	; 0x44
80303c94:	e3530034 	cmp	r3, #52	; 0x34
80303c98:	979ff103 	ldrls	pc, [pc, r3, lsl #2]
80303c9c:	ea0000ee 	b	8030405c <vsnprintf+0x650>
80303ca0:	80303e6c 	.word	0x80303e6c
80303ca4:	8030405c 	.word	0x8030405c
80303ca8:	8030405c 	.word	0x8030405c
80303cac:	8030405c 	.word	0x8030405c
80303cb0:	8030405c 	.word	0x8030405c
80303cb4:	8030405c 	.word	0x8030405c
80303cb8:	8030405c 	.word	0x8030405c
80303cbc:	8030405c 	.word	0x8030405c
80303cc0:	8030405c 	.word	0x8030405c
80303cc4:	8030405c 	.word	0x8030405c
80303cc8:	8030405c 	.word	0x8030405c
80303ccc:	80303ec4 	.word	0x80303ec4
80303cd0:	8030405c 	.word	0x8030405c
80303cd4:	8030405c 	.word	0x8030405c
80303cd8:	8030405c 	.word	0x8030405c
80303cdc:	8030405c 	.word	0x8030405c
80303ce0:	8030405c 	.word	0x8030405c
80303ce4:	8030405c 	.word	0x8030405c
80303ce8:	8030405c 	.word	0x8030405c
80303cec:	8030405c 	.word	0x8030405c
80303cf0:	80303d74 	.word	0x80303d74
80303cf4:	8030405c 	.word	0x8030405c
80303cf8:	8030405c 	.word	0x8030405c
80303cfc:	8030405c 	.word	0x8030405c
80303d00:	8030405c 	.word	0x8030405c
80303d04:	8030405c 	.word	0x8030405c
80303d08:	8030405c 	.word	0x8030405c
80303d0c:	8030405c 	.word	0x8030405c
80303d10:	8030405c 	.word	0x8030405c
80303d14:	8030405c 	.word	0x8030405c
80303d18:	8030405c 	.word	0x8030405c
80303d1c:	80303ef0 	.word	0x80303ef0
80303d20:	80303e6c 	.word	0x80303e6c
80303d24:	8030405c 	.word	0x8030405c
80303d28:	8030405c 	.word	0x8030405c
80303d2c:	8030405c 	.word	0x8030405c
80303d30:	8030405c 	.word	0x8030405c
80303d34:	8030405c 	.word	0x8030405c
80303d38:	8030405c 	.word	0x8030405c
80303d3c:	8030405c 	.word	0x8030405c
80303d40:	8030405c 	.word	0x8030405c
80303d44:	8030405c 	.word	0x8030405c
80303d48:	8030405c 	.word	0x8030405c
80303d4c:	80303ec4 	.word	0x80303ec4
80303d50:	8030405c 	.word	0x8030405c
80303d54:	8030405c 	.word	0x8030405c
80303d58:	8030405c 	.word	0x8030405c
80303d5c:	80303f74 	.word	0x80303f74
80303d60:	8030405c 	.word	0x8030405c
80303d64:	80303e98 	.word	0x80303e98
80303d68:	8030405c 	.word	0x8030405c
80303d6c:	8030405c 	.word	0x8030405c
80303d70:	80303d74 	.word	0x80303d74
80303d74:	e51b301c 	ldr	r3, [fp, #-28]	; 0xffffffe4
80303d78:	e3530002 	cmp	r3, #2
80303d7c:	1a000009 	bne	80303da8 <vsnprintf+0x39c>
80303d80:	e51b3044 	ldr	r3, [fp, #-68]	; 0xffffffbc
80303d84:	e2832004 	add	r2, r3, #4
80303d88:	e50b2044 	str	r2, [fp, #-68]	; 0xffffffbc
80303d8c:	e5933000 	ldr	r3, [r3]
80303d90:	e51b0008 	ldr	r0, [fp, #-8]
80303d94:	e51b100c 	ldr	r1, [fp, #-12]
80303d98:	e1a02003 	mov	r2, r3
80303d9c:	ebfffdd5 	bl	803034f8 <shex2>
80303da0:	e50b0008 	str	r0, [fp, #-8]
80303da4:	ea00002f 	b	80303e68 <vsnprintf+0x45c>
80303da8:	e51b301c 	ldr	r3, [fp, #-28]	; 0xffffffe4
80303dac:	e3530003 	cmp	r3, #3
80303db0:	1a000009 	bne	80303ddc <vsnprintf+0x3d0>
80303db4:	e51b3044 	ldr	r3, [fp, #-68]	; 0xffffffbc
80303db8:	e2832004 	add	r2, r3, #4
80303dbc:	e50b2044 	str	r2, [fp, #-68]	; 0xffffffbc
80303dc0:	e5933000 	ldr	r3, [r3]
80303dc4:	e51b0008 	ldr	r0, [fp, #-8]
80303dc8:	e51b100c 	ldr	r1, [fp, #-12]
80303dcc:	e1a02003 	mov	r2, r3
80303dd0:	ebfffe08 	bl	803035f8 <shex3>
80303dd4:	e50b0008 	str	r0, [fp, #-8]
80303dd8:	ea000022 	b	80303e68 <vsnprintf+0x45c>
80303ddc:	e51b301c 	ldr	r3, [fp, #-28]	; 0xffffffe4
80303de0:	e3530004 	cmp	r3, #4
80303de4:	1a000009 	bne	80303e10 <vsnprintf+0x404>
80303de8:	e51b3044 	ldr	r3, [fp, #-68]	; 0xffffffbc
80303dec:	e2832004 	add	r2, r3, #4
80303df0:	e50b2044 	str	r2, [fp, #-68]	; 0xffffffbc
80303df4:	e5933000 	ldr	r3, [r3]
80303df8:	e51b0008 	ldr	r0, [fp, #-8]
80303dfc:	e51b100c 	ldr	r1, [fp, #-12]
80303e00:	e1a02003 	mov	r2, r3
80303e04:	ebfffe25 	bl	803036a0 <shex4>
80303e08:	e50b0008 	str	r0, [fp, #-8]
80303e0c:	ea000015 	b	80303e68 <vsnprintf+0x45c>
80303e10:	e51b301c 	ldr	r3, [fp, #-28]	; 0xffffffe4
80303e14:	e3530008 	cmp	r3, #8
80303e18:	1a000009 	bne	80303e44 <vsnprintf+0x438>
80303e1c:	e51b3044 	ldr	r3, [fp, #-68]	; 0xffffffbc
80303e20:	e2832004 	add	r2, r3, #4
80303e24:	e50b2044 	str	r2, [fp, #-68]	; 0xffffffbc
80303e28:	e5933000 	ldr	r3, [r3]
80303e2c:	e51b0008 	ldr	r0, [fp, #-8]
80303e30:	e51b100c 	ldr	r1, [fp, #-12]
80303e34:	e1a02003 	mov	r2, r3
80303e38:	ebfffe2d 	bl	803036f4 <shex8>
80303e3c:	e50b0008 	str	r0, [fp, #-8]
80303e40:	ea000008 	b	80303e68 <vsnprintf+0x45c>
80303e44:	e51b3044 	ldr	r3, [fp, #-68]	; 0xffffffbc
80303e48:	e2832004 	add	r2, r3, #4
80303e4c:	e50b2044 	str	r2, [fp, #-68]	; 0xffffffbc
80303e50:	e5933000 	ldr	r3, [r3]
80303e54:	e51b0008 	ldr	r0, [fp, #-8]
80303e58:	e51b100c 	ldr	r1, [fp, #-12]
80303e5c:	e1a02003 	mov	r2, r3
80303e60:	ebfffe23 	bl	803036f4 <shex8>
80303e64:	e50b0008 	str	r0, [fp, #-8]
80303e68:	ea00007b 	b	8030405c <vsnprintf+0x650>
80303e6c:	e51b3044 	ldr	r3, [fp, #-68]	; 0xffffffbc
80303e70:	e2832004 	add	r2, r3, #4
80303e74:	e50b2044 	str	r2, [fp, #-68]	; 0xffffffbc
80303e78:	e5933000 	ldr	r3, [r3]
80303e7c:	e51b0008 	ldr	r0, [fp, #-8]
80303e80:	e51b100c 	ldr	r1, [fp, #-12]
80303e84:	e1a02003 	mov	r2, r3
80303e88:	e3a0300a 	mov	r3, #10
80303e8c:	ebfffe3b 	bl	80303780 <sprintn>
80303e90:	e50b0008 	str	r0, [fp, #-8]
80303e94:	ea000070 	b	8030405c <vsnprintf+0x650>
80303e98:	e51b3044 	ldr	r3, [fp, #-68]	; 0xffffffbc
80303e9c:	e2832004 	add	r2, r3, #4
80303ea0:	e50b2044 	str	r2, [fp, #-68]	; 0xffffffbc
80303ea4:	e5933000 	ldr	r3, [r3]
80303ea8:	e51b0008 	ldr	r0, [fp, #-8]
80303eac:	e51b100c 	ldr	r1, [fp, #-12]
80303eb0:	e1a02003 	mov	r2, r3
80303eb4:	e3a0300a 	mov	r3, #10
80303eb8:	ebfffe6f 	bl	8030387c <sprintu>
80303ebc:	e50b0008 	str	r0, [fp, #-8]
80303ec0:	ea000065 	b	8030405c <vsnprintf+0x650>
80303ec4:	e51b3044 	ldr	r3, [fp, #-68]	; 0xffffffbc
80303ec8:	e2832004 	add	r2, r3, #4
80303ecc:	e50b2044 	str	r2, [fp, #-68]	; 0xffffffbc
80303ed0:	e5933000 	ldr	r3, [r3]
80303ed4:	e51b0008 	ldr	r0, [fp, #-8]
80303ed8:	e51b100c 	ldr	r1, [fp, #-12]
80303edc:	e1a02003 	mov	r2, r3
80303ee0:	e3a03008 	mov	r3, #8
80303ee4:	ebfffe25 	bl	80303780 <sprintn>
80303ee8:	e50b0008 	str	r0, [fp, #-8]
80303eec:	ea00005a 	b	8030405c <vsnprintf+0x650>
80303ef0:	e51b3044 	ldr	r3, [fp, #-68]	; 0xffffffbc
80303ef4:	e2832004 	add	r2, r3, #4
80303ef8:	e50b2044 	str	r2, [fp, #-68]	; 0xffffffbc
80303efc:	e5933000 	ldr	r3, [r3]
80303f00:	e50b3034 	str	r3, [fp, #-52]	; 0xffffffcc
80303f04:	e3a03018 	mov	r3, #24
80303f08:	e50b3010 	str	r3, [fp, #-16]
80303f0c:	ea000014 	b	80303f64 <vsnprintf+0x558>
80303f10:	e51b2034 	ldr	r2, [fp, #-52]	; 0xffffffcc
80303f14:	e51b3010 	ldr	r3, [fp, #-16]
80303f18:	e1a03352 	asr	r3, r2, r3
80303f1c:	e203307f 	and	r3, r3, #127	; 0x7f
80303f20:	e50b3024 	str	r3, [fp, #-36]	; 0xffffffdc
80303f24:	e51b3024 	ldr	r3, [fp, #-36]	; 0xffffffdc
80303f28:	e3530000 	cmp	r3, #0
80303f2c:	0a000009 	beq	80303f58 <vsnprintf+0x54c>
80303f30:	e51b2008 	ldr	r2, [fp, #-8]
80303f34:	e51b300c 	ldr	r3, [fp, #-12]
80303f38:	e1520003 	cmp	r2, r3
80303f3c:	8a000005 	bhi	80303f58 <vsnprintf+0x54c>
80303f40:	e51b3008 	ldr	r3, [fp, #-8]
80303f44:	e2832001 	add	r2, r3, #1
80303f48:	e50b2008 	str	r2, [fp, #-8]
80303f4c:	e51b2024 	ldr	r2, [fp, #-36]	; 0xffffffdc
80303f50:	e6ef2072 	uxtb	r2, r2
80303f54:	e5c32000 	strb	r2, [r3]
80303f58:	e51b3010 	ldr	r3, [fp, #-16]
80303f5c:	e2433008 	sub	r3, r3, #8
80303f60:	e50b3010 	str	r3, [fp, #-16]
80303f64:	e51b3010 	ldr	r3, [fp, #-16]
80303f68:	e3530000 	cmp	r3, #0
80303f6c:	aaffffe7 	bge	80303f10 <vsnprintf+0x504>
80303f70:	ea000039 	b	8030405c <vsnprintf+0x650>
80303f74:	e51b3044 	ldr	r3, [fp, #-68]	; 0xffffffbc
80303f78:	e2832004 	add	r2, r3, #4
80303f7c:	e50b2044 	str	r2, [fp, #-68]	; 0xffffffbc
80303f80:	e5933000 	ldr	r3, [r3]
80303f84:	e50b3014 	str	r3, [fp, #-20]	; 0xffffffec
80303f88:	e51b3014 	ldr	r3, [fp, #-20]	; 0xffffffec
80303f8c:	e50b3018 	str	r3, [fp, #-24]	; 0xffffffe8
80303f90:	e51b301c 	ldr	r3, [fp, #-28]	; 0xffffffe4
80303f94:	e3530000 	cmp	r3, #0
80303f98:	0a00001b 	beq	8030400c <vsnprintf+0x600>
80303f9c:	e3a03000 	mov	r3, #0
80303fa0:	e50b3010 	str	r3, [fp, #-16]
80303fa4:	ea000002 	b	80303fb4 <vsnprintf+0x5a8>
80303fa8:	e51b3010 	ldr	r3, [fp, #-16]
80303fac:	e2833001 	add	r3, r3, #1
80303fb0:	e50b3010 	str	r3, [fp, #-16]
80303fb4:	e51b3018 	ldr	r3, [fp, #-24]	; 0xffffffe8
80303fb8:	e2832001 	add	r2, r3, #1
80303fbc:	e50b2018 	str	r2, [fp, #-24]	; 0xffffffe8
80303fc0:	e5d33000 	ldrb	r3, [r3]
80303fc4:	e3530000 	cmp	r3, #0
80303fc8:	1afffff6 	bne	80303fa8 <vsnprintf+0x59c>
80303fcc:	ea000008 	b	80303ff4 <vsnprintf+0x5e8>
80303fd0:	e51b2008 	ldr	r2, [fp, #-8]
80303fd4:	e51b300c 	ldr	r3, [fp, #-12]
80303fd8:	e1520003 	cmp	r2, r3
80303fdc:	8a000004 	bhi	80303ff4 <vsnprintf+0x5e8>
80303fe0:	e51b3008 	ldr	r3, [fp, #-8]
80303fe4:	e2832001 	add	r2, r3, #1
80303fe8:	e50b2008 	str	r2, [fp, #-8]
80303fec:	e3a02020 	mov	r2, #32
80303ff0:	e5c32000 	strb	r2, [r3]
80303ff4:	e51b3010 	ldr	r3, [fp, #-16]
80303ff8:	e2832001 	add	r2, r3, #1
80303ffc:	e50b2010 	str	r2, [fp, #-16]
80304000:	e51b201c 	ldr	r2, [fp, #-28]	; 0xffffffe4
80304004:	e1530002 	cmp	r3, r2
80304008:	bafffff0 	blt	80303fd0 <vsnprintf+0x5c4>
8030400c:	ea000009 	b	80304038 <vsnprintf+0x62c>
80304010:	e51b2008 	ldr	r2, [fp, #-8]
80304014:	e51b300c 	ldr	r3, [fp, #-12]
80304018:	e1520003 	cmp	r2, r3
8030401c:	8a000005 	bhi	80304038 <vsnprintf+0x62c>
80304020:	e51b3008 	ldr	r3, [fp, #-8]
80304024:	e2832001 	add	r2, r3, #1
80304028:	e50b2008 	str	r2, [fp, #-8]
8030402c:	e51b2024 	ldr	r2, [fp, #-36]	; 0xffffffdc
80304030:	e6ef2072 	uxtb	r2, r2
80304034:	e5c32000 	strb	r2, [r3]
80304038:	e51b3014 	ldr	r3, [fp, #-20]	; 0xffffffec
8030403c:	e2832001 	add	r2, r3, #1
80304040:	e50b2014 	str	r2, [fp, #-20]	; 0xffffffec
80304044:	e5d33000 	ldrb	r3, [r3]
80304048:	e50b3024 	str	r3, [fp, #-36]	; 0xffffffdc
8030404c:	e51b3024 	ldr	r3, [fp, #-36]	; 0xffffffdc
80304050:	e3530000 	cmp	r3, #0
80304054:	1affffed 	bne	80304010 <vsnprintf+0x604>
80304058:	e1a00000 	nop			; (mov r0, r0)
8030405c:	e51b3040 	ldr	r3, [fp, #-64]	; 0xffffffc0
80304060:	e2832001 	add	r2, r3, #1
80304064:	e50b2040 	str	r2, [fp, #-64]	; 0xffffffc0
80304068:	e5d33000 	ldrb	r3, [r3]
8030406c:	e50b3024 	str	r3, [fp, #-36]	; 0xffffffdc
80304070:	e51b3024 	ldr	r3, [fp, #-36]	; 0xffffffdc
80304074:	e3530000 	cmp	r3, #0
80304078:	1afffe7e 	bne	80303a78 <vsnprintf+0x6c>
8030407c:	e51b2008 	ldr	r2, [fp, #-8]
80304080:	e51b300c 	ldr	r3, [fp, #-12]
80304084:	e1520003 	cmp	r2, r3
80304088:	8a000003 	bhi	8030409c <vsnprintf+0x690>
8030408c:	e51b3008 	ldr	r3, [fp, #-8]
80304090:	e3a02000 	mov	r2, #0
80304094:	e5c32000 	strb	r2, [r3]
80304098:	ea000005 	b	803040b4 <vsnprintf+0x6a8>
8030409c:	e51b303c 	ldr	r3, [fp, #-60]	; 0xffffffc4
803040a0:	e3530000 	cmp	r3, #0
803040a4:	0a000002 	beq	803040b4 <vsnprintf+0x6a8>
803040a8:	e51b300c 	ldr	r3, [fp, #-12]
803040ac:	e3a02000 	mov	r2, #0
803040b0:	e5c32000 	strb	r2, [r3]
803040b4:	e51b2008 	ldr	r2, [fp, #-8]
803040b8:	e51b3038 	ldr	r3, [fp, #-56]	; 0xffffffc8
803040bc:	e0633002 	rsb	r3, r3, r2
803040c0:	eaffffff 	b	803040c4 <vsnprintf+0x6b8>
803040c4:	e1a00003 	mov	r0, r3
803040c8:	e24bd004 	sub	sp, fp, #4
803040cc:	e8bd8800 	pop	{fp, pc}

803040d0 <console_initialize>:
803040d0:	e92d4800 	push	{fp, lr}
803040d4:	e28db004 	add	fp, sp, #4
803040d8:	e3a00cc2 	mov	r0, #49664	; 0xc200
803040dc:	e3400001 	movt	r0, #1
803040e0:	ebfffbb7 	bl	80302fc4 <serial_init>
803040e4:	e8bd8800 	pop	{fp, pc}

803040e8 <console_init>:
803040e8:	e92d4800 	push	{fp, lr}
803040ec:	e28db004 	add	fp, sp, #4
803040f0:	e3a00cc2 	mov	r0, #49664	; 0xc200
803040f4:	e3400001 	movt	r0, #1
803040f8:	ebfffbb1 	bl	80302fc4 <serial_init>
803040fc:	e8bd8800 	pop	{fp, pc}

80304100 <console_serial>:
80304100:	e52db004 	push	{fp}		; (str fp, [sp, #-4]!)
80304104:	e28db000 	add	fp, sp, #0
80304108:	e3083210 	movw	r3, #33296	; 0x8210
8030410c:	e3483031 	movt	r3, #32817	; 0x8031
80304110:	e5933000 	ldr	r3, [r3]
80304114:	e3a02000 	mov	r2, #0
80304118:	e5832094 	str	r2, [r3, #148]	; 0x94
8030411c:	e24bd000 	sub	sp, fp, #0
80304120:	e49db004 	pop	{fp}		; (ldr fp, [sp], #4)
80304124:	e12fff1e 	bx	lr

80304128 <get_console_type>:
80304128:	e52db004 	push	{fp}		; (str fp, [sp, #-4]!)
8030412c:	e28db000 	add	fp, sp, #0
80304130:	e3083210 	movw	r3, #33296	; 0x8210
80304134:	e3483031 	movt	r3, #32817	; 0x8031
80304138:	e5933000 	ldr	r3, [r3]
8030413c:	e5933094 	ldr	r3, [r3, #148]	; 0x94
80304140:	e1a00003 	mov	r0, r3
80304144:	e24bd000 	sub	sp, fp, #0
80304148:	e49db004 	pop	{fp}		; (ldr fp, [sp], #4)
8030414c:	e12fff1e 	bx	lr

80304150 <getchare>:
80304150:	e92d4800 	push	{fp, lr}
80304154:	e28db004 	add	fp, sp, #4
80304158:	e3083210 	movw	r3, #33296	; 0x8210
8030415c:	e3483031 	movt	r3, #32817	; 0x8031
80304160:	e5933000 	ldr	r3, [r3]
80304164:	e5933094 	ldr	r3, [r3, #148]	; 0x94
80304168:	e3530000 	cmp	r3, #0
8030416c:	1a000002 	bne	8030417c <getchare+0x2c>
80304170:	ebfffbe7 	bl	80303114 <serial_getc>
80304174:	e1a03000 	mov	r3, r0
80304178:	ea000002 	b	80304188 <getchare+0x38>
8030417c:	e3060348 	movw	r0, #25416	; 0x6348
80304180:	e3480030 	movt	r0, #32816	; 0x8030
80304184:	eb000099 	bl	803043f0 <panic>
80304188:	e1a00003 	mov	r0, r3
8030418c:	e8bd8800 	pop	{fp, pc}

80304190 <getchar>:
80304190:	e92d4800 	push	{fp, lr}
80304194:	e28db004 	add	fp, sp, #4
80304198:	e24dd008 	sub	sp, sp, #8
8030419c:	e3083210 	movw	r3, #33296	; 0x8210
803041a0:	e3483031 	movt	r3, #32817	; 0x8031
803041a4:	e5933000 	ldr	r3, [r3]
803041a8:	e5933094 	ldr	r3, [r3, #148]	; 0x94
803041ac:	e3530000 	cmp	r3, #0
803041b0:	1a000003 	bne	803041c4 <getchar+0x34>
803041b4:	ebfffbd6 	bl	80303114 <serial_getc>
803041b8:	e50b0008 	str	r0, [fp, #-8]
803041bc:	e51b0008 	ldr	r0, [fp, #-8]
803041c0:	ebfffbb9 	bl	803030ac <serial_putc>
803041c4:	e3060360 	movw	r0, #25440	; 0x6360
803041c8:	e3480030 	movt	r0, #32816	; 0x8030
803041cc:	eb000087 	bl	803043f0 <panic>
803041d0:	e1a00003 	mov	r0, r3
803041d4:	e24bd004 	sub	sp, fp, #4
803041d8:	e8bd8800 	pop	{fp, pc}

803041dc <backspace>:
803041dc:	e52db004 	push	{fp}		; (str fp, [sp, #-4]!)
803041e0:	e28db000 	add	fp, sp, #0
803041e4:	e24bd000 	sub	sp, fp, #0
803041e8:	e49db004 	pop	{fp}		; (ldr fp, [sp], #4)
803041ec:	e12fff1e 	bx	lr

803041f0 <getline>:
803041f0:	e92d4800 	push	{fp, lr}
803041f4:	e28db004 	add	fp, sp, #4
803041f8:	e24dd018 	sub	sp, sp, #24
803041fc:	e50b0018 	str	r0, [fp, #-24]	; 0xffffffe8
80304200:	e50b101c 	str	r1, [fp, #-28]	; 0xffffffe4
80304204:	e51b301c 	ldr	r3, [fp, #-28]	; 0xffffffe4
80304208:	e2433001 	sub	r3, r3, #1
8030420c:	e50b301c 	str	r3, [fp, #-28]	; 0xffffffe4
80304210:	e51b3018 	ldr	r3, [fp, #-24]	; 0xffffffe8
80304214:	e50b300c 	str	r3, [fp, #-12]
80304218:	e3a03000 	mov	r3, #0
8030421c:	e50b3008 	str	r3, [fp, #-8]
80304220:	ea00002c 	b	803042d8 <getline+0xe8>
80304224:	ebffffc9 	bl	80304150 <getchare>
80304228:	e50b0010 	str	r0, [fp, #-16]
8030422c:	e51b3010 	ldr	r3, [fp, #-16]
80304230:	e353000d 	cmp	r3, #13
80304234:	1a000000 	bne	8030423c <getline+0x4c>
80304238:	ea00002a 	b	803042e8 <getline+0xf8>
8030423c:	e51b3010 	ldr	r3, [fp, #-16]
80304240:	e3530015 	cmp	r3, #21
80304244:	1a00000a 	bne	80304274 <getline+0x84>
80304248:	ea000003 	b	8030425c <getline+0x6c>
8030424c:	ebffffe2 	bl	803041dc <backspace>
80304250:	e51b3008 	ldr	r3, [fp, #-8]
80304254:	e2433001 	sub	r3, r3, #1
80304258:	e50b3008 	str	r3, [fp, #-8]
8030425c:	e51b3008 	ldr	r3, [fp, #-8]
80304260:	e3530000 	cmp	r3, #0
80304264:	1afffff8 	bne	8030424c <getline+0x5c>
80304268:	e51b3018 	ldr	r3, [fp, #-24]	; 0xffffffe8
8030426c:	e50b300c 	str	r3, [fp, #-12]
80304270:	ea000018 	b	803042d8 <getline+0xe8>
80304274:	e51b3010 	ldr	r3, [fp, #-16]
80304278:	e3530008 	cmp	r3, #8
8030427c:	1a00000a 	bne	803042ac <getline+0xbc>
80304280:	e51b3008 	ldr	r3, [fp, #-8]
80304284:	e3530000 	cmp	r3, #0
80304288:	0a000006 	beq	803042a8 <getline+0xb8>
8030428c:	ebffffd2 	bl	803041dc <backspace>
80304290:	e51b300c 	ldr	r3, [fp, #-12]
80304294:	e2433001 	sub	r3, r3, #1
80304298:	e50b300c 	str	r3, [fp, #-12]
8030429c:	e51b3008 	ldr	r3, [fp, #-8]
803042a0:	e2433001 	sub	r3, r3, #1
803042a4:	e50b3008 	str	r3, [fp, #-8]
803042a8:	ea00000a 	b	803042d8 <getline+0xe8>
803042ac:	e51b0010 	ldr	r0, [fp, #-16]
803042b0:	eb000023 	bl	80304344 <putchar>
803042b4:	e51b300c 	ldr	r3, [fp, #-12]
803042b8:	e2832001 	add	r2, r3, #1
803042bc:	e50b200c 	str	r2, [fp, #-12]
803042c0:	e51b2010 	ldr	r2, [fp, #-16]
803042c4:	e6ef2072 	uxtb	r2, r2
803042c8:	e5c32000 	strb	r2, [r3]
803042cc:	e51b3008 	ldr	r3, [fp, #-8]
803042d0:	e2833001 	add	r3, r3, #1
803042d4:	e50b3008 	str	r3, [fp, #-8]
803042d8:	e51b2008 	ldr	r2, [fp, #-8]
803042dc:	e51b301c 	ldr	r3, [fp, #-28]	; 0xffffffe4
803042e0:	e1520003 	cmp	r2, r3
803042e4:	baffffce 	blt	80304224 <getline+0x34>
803042e8:	e3a0000a 	mov	r0, #10
803042ec:	eb000014 	bl	80304344 <putchar>
803042f0:	e51b300c 	ldr	r3, [fp, #-12]
803042f4:	e3a02000 	mov	r2, #0
803042f8:	e5c32000 	strb	r2, [r3]
803042fc:	e24bd004 	sub	sp, fp, #4
80304300:	e8bd8800 	pop	{fp, pc}

80304304 <puts>:
80304304:	e92d4800 	push	{fp, lr}
80304308:	e28db004 	add	fp, sp, #4
8030430c:	e24dd008 	sub	sp, sp, #8
80304310:	e50b0008 	str	r0, [fp, #-8]
80304314:	e3083210 	movw	r3, #33296	; 0x8210
80304318:	e3483031 	movt	r3, #32817	; 0x8031
8030431c:	e5933000 	ldr	r3, [r3]
80304320:	e5933094 	ldr	r3, [r3, #148]	; 0x94
80304324:	e3530000 	cmp	r3, #0
80304328:	1a000003 	bne	8030433c <puts+0x38>
8030432c:	e51b0008 	ldr	r0, [fp, #-8]
80304330:	ebfffb9b 	bl	803031a4 <serial_puts>
80304334:	e3a0000a 	mov	r0, #10
80304338:	ebfffb5b 	bl	803030ac <serial_putc>
8030433c:	e24bd004 	sub	sp, fp, #4
80304340:	e8bd8800 	pop	{fp, pc}

80304344 <putchar>:
80304344:	e92d4800 	push	{fp, lr}
80304348:	e28db004 	add	fp, sp, #4
8030434c:	e24dd008 	sub	sp, sp, #8
80304350:	e50b0008 	str	r0, [fp, #-8]
80304354:	e51b0008 	ldr	r0, [fp, #-8]
80304358:	ebfffb53 	bl	803030ac <serial_putc>
8030435c:	e24bd004 	sub	sp, fp, #4
80304360:	e8bd8800 	pop	{fp, pc}

80304364 <vprintf>:
80304364:	e92d4800 	push	{fp, lr}
80304368:	e28db004 	add	fp, sp, #4
8030436c:	e24dd090 	sub	sp, sp, #144	; 0x90
80304370:	e50b0090 	str	r0, [fp, #-144]	; 0xffffff70
80304374:	e50b1094 	str	r1, [fp, #-148]	; 0xffffff6c
80304378:	e24b3088 	sub	r3, fp, #136	; 0x88
8030437c:	e1a00003 	mov	r0, r3
80304380:	e3a01080 	mov	r1, #128	; 0x80
80304384:	e51b2090 	ldr	r2, [fp, #-144]	; 0xffffff70
80304388:	e51b3094 	ldr	r3, [fp, #-148]	; 0xffffff6c
8030438c:	ebfffd9e 	bl	80303a0c <vsnprintf>
80304390:	e50b0008 	str	r0, [fp, #-8]
80304394:	e24b3088 	sub	r3, fp, #136	; 0x88
80304398:	e1a00003 	mov	r0, r3
8030439c:	ebfffb80 	bl	803031a4 <serial_puts>
803043a0:	e51b3008 	ldr	r3, [fp, #-8]
803043a4:	e1a00003 	mov	r0, r3
803043a8:	e24bd004 	sub	sp, fp, #4
803043ac:	e8bd8800 	pop	{fp, pc}

803043b0 <printf>:
803043b0:	e92d000f 	push	{r0, r1, r2, r3}
803043b4:	e92d4800 	push	{fp, lr}
803043b8:	e28db004 	add	fp, sp, #4
803043bc:	e24dd008 	sub	sp, sp, #8
803043c0:	e28b3008 	add	r3, fp, #8
803043c4:	e50b300c 	str	r3, [fp, #-12]
803043c8:	e59b0004 	ldr	r0, [fp, #4]
803043cc:	e51b100c 	ldr	r1, [fp, #-12]
803043d0:	ebffffe3 	bl	80304364 <vprintf>
803043d4:	e50b0008 	str	r0, [fp, #-8]
803043d8:	e51b3008 	ldr	r3, [fp, #-8]
803043dc:	e1a00003 	mov	r0, r3
803043e0:	e24bd004 	sub	sp, fp, #4
803043e4:	e8bd4800 	pop	{fp, lr}
803043e8:	e28dd010 	add	sp, sp, #16
803043ec:	e12fff1e 	bx	lr

803043f0 <panic>:
803043f0:	e92d4800 	push	{fp, lr}
803043f4:	e28db004 	add	fp, sp, #4
803043f8:	e24dd008 	sub	sp, sp, #8
803043fc:	e50b0008 	str	r0, [fp, #-8]
80304400:	e51b3008 	ldr	r3, [fp, #-8]
80304404:	e3530000 	cmp	r3, #0
80304408:	0a000004 	beq	80304420 <panic+0x30>
8030440c:	e3060378 	movw	r0, #25464	; 0x6378
80304410:	e3480030 	movt	r0, #32816	; 0x8030
80304414:	e51b1008 	ldr	r1, [fp, #-8]
80304418:	ebffffe4 	bl	803043b0 <printf>
8030441c:	ea000002 	b	8030442c <panic+0x3c>
80304420:	e3060384 	movw	r0, #25476	; 0x6384
80304424:	e3480030 	movt	r0, #32816	; 0x8030
80304428:	ebffffe0 	bl	803043b0 <printf>
8030442c:	eafffffe 	b	8030442c <panic+0x3c>

80304430 <dpanic>:
80304430:	e92d4800 	push	{fp, lr}
80304434:	e28db004 	add	fp, sp, #4
80304438:	e24dd008 	sub	sp, sp, #8
8030443c:	e50b0008 	str	r0, [fp, #-8]
80304440:	e51b3008 	ldr	r3, [fp, #-8]
80304444:	e3530000 	cmp	r3, #0
80304448:	0a000004 	beq	80304460 <dpanic+0x30>
8030444c:	e306038c 	movw	r0, #25484	; 0x638c
80304450:	e3480030 	movt	r0, #32816	; 0x8030
80304454:	e51b1008 	ldr	r1, [fp, #-8]
80304458:	ebffffd4 	bl	803043b0 <printf>
8030445c:	ea000002 	b	8030446c <dpanic+0x3c>
80304460:	e3060398 	movw	r0, #25496	; 0x6398
80304464:	e3480030 	movt	r0, #32816	; 0x8030
80304468:	ebffffd0 	bl	803043b0 <printf>
8030446c:	e24bd004 	sub	sp, fp, #4
80304470:	e8bd8800 	pop	{fp, pc}

80304474 <hextoi>:
80304474:	e52db004 	push	{fp}		; (str fp, [sp, #-4]!)
80304478:	e28db000 	add	fp, sp, #0
8030447c:	e24dd014 	sub	sp, sp, #20
80304480:	e50b0010 	str	r0, [fp, #-16]
80304484:	e3a03000 	mov	r3, #0
80304488:	e50b3008 	str	r3, [fp, #-8]
8030448c:	ea000027 	b	80304530 <hextoi+0xbc>
80304490:	e51b300c 	ldr	r3, [fp, #-12]
80304494:	e353002f 	cmp	r3, #47	; 0x2f
80304498:	da000009 	ble	803044c4 <hextoi+0x50>
8030449c:	e51b300c 	ldr	r3, [fp, #-12]
803044a0:	e3530039 	cmp	r3, #57	; 0x39
803044a4:	ca000006 	bgt	803044c4 <hextoi+0x50>
803044a8:	e51b3008 	ldr	r3, [fp, #-8]
803044ac:	e1a02203 	lsl	r2, r3, #4
803044b0:	e51b300c 	ldr	r3, [fp, #-12]
803044b4:	e2433030 	sub	r3, r3, #48	; 0x30
803044b8:	e0823003 	add	r3, r2, r3
803044bc:	e50b3008 	str	r3, [fp, #-8]
803044c0:	ea00001a 	b	80304530 <hextoi+0xbc>
803044c4:	e51b300c 	ldr	r3, [fp, #-12]
803044c8:	e3530060 	cmp	r3, #96	; 0x60
803044cc:	da00000a 	ble	803044fc <hextoi+0x88>
803044d0:	e51b300c 	ldr	r3, [fp, #-12]
803044d4:	e3530066 	cmp	r3, #102	; 0x66
803044d8:	ca000007 	bgt	803044fc <hextoi+0x88>
803044dc:	e51b3008 	ldr	r3, [fp, #-8]
803044e0:	e1a03203 	lsl	r3, r3, #4
803044e4:	e283200a 	add	r2, r3, #10
803044e8:	e51b300c 	ldr	r3, [fp, #-12]
803044ec:	e2433061 	sub	r3, r3, #97	; 0x61
803044f0:	e0823003 	add	r3, r2, r3
803044f4:	e50b3008 	str	r3, [fp, #-8]
803044f8:	ea00000c 	b	80304530 <hextoi+0xbc>
803044fc:	e51b300c 	ldr	r3, [fp, #-12]
80304500:	e3530040 	cmp	r3, #64	; 0x40
80304504:	da000011 	ble	80304550 <hextoi+0xdc>
80304508:	e51b300c 	ldr	r3, [fp, #-12]
8030450c:	e3530046 	cmp	r3, #70	; 0x46
80304510:	ca00000e 	bgt	80304550 <hextoi+0xdc>
80304514:	e51b3008 	ldr	r3, [fp, #-8]
80304518:	e1a03203 	lsl	r3, r3, #4
8030451c:	e283200a 	add	r2, r3, #10
80304520:	e51b300c 	ldr	r3, [fp, #-12]
80304524:	e2433041 	sub	r3, r3, #65	; 0x41
80304528:	e0823003 	add	r3, r2, r3
8030452c:	e50b3008 	str	r3, [fp, #-8]
80304530:	e51b3010 	ldr	r3, [fp, #-16]
80304534:	e2832001 	add	r2, r3, #1
80304538:	e50b2010 	str	r2, [fp, #-16]
8030453c:	e5d33000 	ldrb	r3, [r3]
80304540:	e50b300c 	str	r3, [fp, #-12]
80304544:	e51b300c 	ldr	r3, [fp, #-12]
80304548:	e3530000 	cmp	r3, #0
8030454c:	1affffcf 	bne	80304490 <hextoi+0x1c>
80304550:	e51b3008 	ldr	r3, [fp, #-8]
80304554:	e1a00003 	mov	r0, r3
80304558:	e24bd000 	sub	sp, fp, #0
8030455c:	e49db004 	pop	{fp}		; (ldr fp, [sp], #4)
80304560:	e12fff1e 	bx	lr

80304564 <atoi>:
80304564:	e92d4800 	push	{fp, lr}
80304568:	e28db004 	add	fp, sp, #4
8030456c:	e24dd010 	sub	sp, sp, #16
80304570:	e50b0010 	str	r0, [fp, #-16]
80304574:	e3a03000 	mov	r3, #0
80304578:	e50b3008 	str	r3, [fp, #-8]
8030457c:	e51b3010 	ldr	r3, [fp, #-16]
80304580:	e5d33000 	ldrb	r3, [r3]
80304584:	e3530030 	cmp	r3, #48	; 0x30
80304588:	1a00000a 	bne	803045b8 <atoi+0x54>
8030458c:	e51b3010 	ldr	r3, [fp, #-16]
80304590:	e2833001 	add	r3, r3, #1
80304594:	e5d33000 	ldrb	r3, [r3]
80304598:	e3530078 	cmp	r3, #120	; 0x78
8030459c:	1a000005 	bne	803045b8 <atoi+0x54>
803045a0:	e51b3010 	ldr	r3, [fp, #-16]
803045a4:	e2833002 	add	r3, r3, #2
803045a8:	e1a00003 	mov	r0, r3
803045ac:	ebffffb0 	bl	80304474 <hextoi>
803045b0:	e1a03000 	mov	r3, r0
803045b4:	ea000016 	b	80304614 <atoi+0xb0>
803045b8:	ea00000c 	b	803045f0 <atoi+0x8c>
803045bc:	e51b2008 	ldr	r2, [fp, #-8]
803045c0:	e1a03002 	mov	r3, r2
803045c4:	e1a03103 	lsl	r3, r3, #2
803045c8:	e0833002 	add	r3, r3, r2
803045cc:	e1a03083 	lsl	r3, r3, #1
803045d0:	e1a01003 	mov	r1, r3
803045d4:	e51b3010 	ldr	r3, [fp, #-16]
803045d8:	e2832001 	add	r2, r3, #1
803045dc:	e50b2010 	str	r2, [fp, #-16]
803045e0:	e5d33000 	ldrb	r3, [r3]
803045e4:	e2433030 	sub	r3, r3, #48	; 0x30
803045e8:	e0813003 	add	r3, r1, r3
803045ec:	e50b3008 	str	r3, [fp, #-8]
803045f0:	e51b3010 	ldr	r3, [fp, #-16]
803045f4:	e5d33000 	ldrb	r3, [r3]
803045f8:	e353002f 	cmp	r3, #47	; 0x2f
803045fc:	9a000003 	bls	80304610 <atoi+0xac>
80304600:	e51b3010 	ldr	r3, [fp, #-16]
80304604:	e5d33000 	ldrb	r3, [r3]
80304608:	e3530039 	cmp	r3, #57	; 0x39
8030460c:	9affffea 	bls	803045bc <atoi+0x58>
80304610:	e51b3008 	ldr	r3, [fp, #-8]
80304614:	e1a00003 	mov	r0, r3
80304618:	e24bd004 	sub	sp, fp, #4
8030461c:	e8bd8800 	pop	{fp, pc}

80304620 <chomp>:
80304620:	e52db004 	push	{fp}		; (str fp, [sp, #-4]!)
80304624:	e28db000 	add	fp, sp, #0
80304628:	e24dd014 	sub	sp, sp, #20
8030462c:	e50b0010 	str	r0, [fp, #-16]
80304630:	e51b3010 	ldr	r3, [fp, #-16]
80304634:	e3530000 	cmp	r3, #0
80304638:	0a000003 	beq	8030464c <chomp+0x2c>
8030463c:	e51b3010 	ldr	r3, [fp, #-16]
80304640:	e5d33000 	ldrb	r3, [r3]
80304644:	e3530000 	cmp	r3, #0
80304648:	1a000000 	bne	80304650 <chomp+0x30>
8030464c:	ea00000e 	b	8030468c <chomp+0x6c>
80304650:	ea000003 	b	80304664 <chomp+0x44>
80304654:	e51b3010 	ldr	r3, [fp, #-16]
80304658:	e2832001 	add	r2, r3, #1
8030465c:	e50b2010 	str	r2, [fp, #-16]
80304660:	e50b3008 	str	r3, [fp, #-8]
80304664:	e51b3010 	ldr	r3, [fp, #-16]
80304668:	e5d33000 	ldrb	r3, [r3]
8030466c:	e3530000 	cmp	r3, #0
80304670:	1afffff7 	bne	80304654 <chomp+0x34>
80304674:	e51b3008 	ldr	r3, [fp, #-8]
80304678:	e3a0200a 	mov	r2, #10
8030467c:	e5c32000 	strb	r2, [r3]
80304680:	e51b3008 	ldr	r3, [fp, #-8]
80304684:	e3a02000 	mov	r2, #0
80304688:	e5c32000 	strb	r2, [r3]
8030468c:	e24bd000 	sub	sp, fp, #0
80304690:	e49db004 	pop	{fp}		; (ldr fp, [sp], #4)
80304694:	e12fff1e 	bx	lr

80304698 <split>:
80304698:	e52db004 	push	{fp}		; (str fp, [sp, #-4]!)
8030469c:	e28db000 	add	fp, sp, #0
803046a0:	e24dd01c 	sub	sp, sp, #28
803046a4:	e50b0010 	str	r0, [fp, #-16]
803046a8:	e50b1014 	str	r1, [fp, #-20]	; 0xffffffec
803046ac:	e50b2018 	str	r2, [fp, #-24]	; 0xffffffe8
803046b0:	e51b3010 	ldr	r3, [fp, #-16]
803046b4:	e50b300c 	str	r3, [fp, #-12]
803046b8:	e3a03000 	mov	r3, #0
803046bc:	e50b3008 	str	r3, [fp, #-8]
803046c0:	ea00002e 	b	80304780 <split+0xe8>
803046c4:	ea000002 	b	803046d4 <split+0x3c>
803046c8:	e51b300c 	ldr	r3, [fp, #-12]
803046cc:	e2833001 	add	r3, r3, #1
803046d0:	e50b300c 	str	r3, [fp, #-12]
803046d4:	e51b300c 	ldr	r3, [fp, #-12]
803046d8:	e5d33000 	ldrb	r3, [r3]
803046dc:	e3530000 	cmp	r3, #0
803046e0:	0a000003 	beq	803046f4 <split+0x5c>
803046e4:	e51b300c 	ldr	r3, [fp, #-12]
803046e8:	e5d33000 	ldrb	r3, [r3]
803046ec:	e3530020 	cmp	r3, #32
803046f0:	0afffff4 	beq	803046c8 <split+0x30>
803046f4:	e51b300c 	ldr	r3, [fp, #-12]
803046f8:	e5d33000 	ldrb	r3, [r3]
803046fc:	e3530000 	cmp	r3, #0
80304700:	1a000000 	bne	80304708 <split+0x70>
80304704:	ea000021 	b	80304790 <split+0xf8>
80304708:	e51b3008 	ldr	r3, [fp, #-8]
8030470c:	e2832001 	add	r2, r3, #1
80304710:	e50b2008 	str	r2, [fp, #-8]
80304714:	e1a03103 	lsl	r3, r3, #2
80304718:	e51b2014 	ldr	r2, [fp, #-20]	; 0xffffffec
8030471c:	e0823003 	add	r3, r2, r3
80304720:	e51b200c 	ldr	r2, [fp, #-12]
80304724:	e5832000 	str	r2, [r3]
80304728:	ea000002 	b	80304738 <split+0xa0>
8030472c:	e51b300c 	ldr	r3, [fp, #-12]
80304730:	e2833001 	add	r3, r3, #1
80304734:	e50b300c 	str	r3, [fp, #-12]
80304738:	e51b300c 	ldr	r3, [fp, #-12]
8030473c:	e5d33000 	ldrb	r3, [r3]
80304740:	e3530000 	cmp	r3, #0
80304744:	0a000003 	beq	80304758 <split+0xc0>
80304748:	e51b300c 	ldr	r3, [fp, #-12]
8030474c:	e5d33000 	ldrb	r3, [r3]
80304750:	e3530020 	cmp	r3, #32
80304754:	1afffff4 	bne	8030472c <split+0x94>
80304758:	e51b300c 	ldr	r3, [fp, #-12]
8030475c:	e5d33000 	ldrb	r3, [r3]
80304760:	e3530000 	cmp	r3, #0
80304764:	1a000000 	bne	8030476c <split+0xd4>
80304768:	ea000008 	b	80304790 <split+0xf8>
8030476c:	e51b300c 	ldr	r3, [fp, #-12]
80304770:	e2832001 	add	r2, r3, #1
80304774:	e50b200c 	str	r2, [fp, #-12]
80304778:	e3a02000 	mov	r2, #0
8030477c:	e5c32000 	strb	r2, [r3]
80304780:	e51b2008 	ldr	r2, [fp, #-8]
80304784:	e51b3018 	ldr	r3, [fp, #-24]	; 0xffffffe8
80304788:	e1520003 	cmp	r2, r3
8030478c:	baffffcc 	blt	803046c4 <split+0x2c>
80304790:	e51b3008 	ldr	r3, [fp, #-8]
80304794:	e1a00003 	mov	r0, r3
80304798:	e24bd000 	sub	sp, fp, #0
8030479c:	e49db004 	pop	{fp}		; (ldr fp, [sp], #4)
803047a0:	e12fff1e 	bx	lr

803047a4 <net_dots>:
803047a4:	e92d4810 	push	{r4, fp, lr}
803047a8:	e28db008 	add	fp, sp, #8
803047ac:	e24dd01c 	sub	sp, sp, #28
803047b0:	e50b0020 	str	r0, [fp, #-32]	; 0xffffffe0
803047b4:	e50b1024 	str	r1, [fp, #-36]	; 0xffffffdc
803047b8:	e51b3020 	ldr	r3, [fp, #-32]	; 0xffffffe0
803047bc:	e50b3010 	str	r3, [fp, #-16]
803047c0:	e24b301c 	sub	r3, fp, #28
803047c4:	e50b3014 	str	r3, [fp, #-20]	; 0xffffffec
803047c8:	e3a03000 	mov	r3, #0
803047cc:	e50b3018 	str	r3, [fp, #-24]	; 0xffffffe8
803047d0:	ea000047 	b	803048f4 <net_dots+0x150>
803047d4:	e51b3010 	ldr	r3, [fp, #-16]
803047d8:	e5d33000 	ldrb	r3, [r3]
803047dc:	e353002f 	cmp	r3, #47	; 0x2f
803047e0:	9a000003 	bls	803047f4 <net_dots+0x50>
803047e4:	e51b3010 	ldr	r3, [fp, #-16]
803047e8:	e5d33000 	ldrb	r3, [r3]
803047ec:	e3530039 	cmp	r3, #57	; 0x39
803047f0:	9a000001 	bls	803047fc <net_dots+0x58>
803047f4:	e3a03000 	mov	r3, #0
803047f8:	ea000046 	b	80304918 <net_dots+0x174>
803047fc:	ea00000f 	b	80304840 <net_dots+0x9c>
80304800:	e24b301c 	sub	r3, fp, #28
80304804:	e2833003 	add	r3, r3, #3
80304808:	e51b2014 	ldr	r2, [fp, #-20]	; 0xffffffec
8030480c:	e1520003 	cmp	r2, r3
80304810:	2a000008 	bcs	80304838 <net_dots+0x94>
80304814:	e51b3014 	ldr	r3, [fp, #-20]	; 0xffffffec
80304818:	e2832001 	add	r2, r3, #1
8030481c:	e50b2014 	str	r2, [fp, #-20]	; 0xffffffec
80304820:	e51b2010 	ldr	r2, [fp, #-16]
80304824:	e2821001 	add	r1, r2, #1
80304828:	e50b1010 	str	r1, [fp, #-16]
8030482c:	e5d22000 	ldrb	r2, [r2]
80304830:	e5c32000 	strb	r2, [r3]
80304834:	ea000001 	b	80304840 <net_dots+0x9c>
80304838:	e3a03000 	mov	r3, #0
8030483c:	ea000035 	b	80304918 <net_dots+0x174>
80304840:	e51b3010 	ldr	r3, [fp, #-16]
80304844:	e5d33000 	ldrb	r3, [r3]
80304848:	e3530000 	cmp	r3, #0
8030484c:	0a000007 	beq	80304870 <net_dots+0xcc>
80304850:	e51b3010 	ldr	r3, [fp, #-16]
80304854:	e5d33000 	ldrb	r3, [r3]
80304858:	e353002f 	cmp	r3, #47	; 0x2f
8030485c:	9a000003 	bls	80304870 <net_dots+0xcc>
80304860:	e51b3010 	ldr	r3, [fp, #-16]
80304864:	e5d33000 	ldrb	r3, [r3]
80304868:	e3530039 	cmp	r3, #57	; 0x39
8030486c:	9affffe3 	bls	80304800 <net_dots+0x5c>
80304870:	e51b3014 	ldr	r3, [fp, #-20]	; 0xffffffec
80304874:	e2832001 	add	r2, r3, #1
80304878:	e50b2014 	str	r2, [fp, #-20]	; 0xffffffec
8030487c:	e3a02000 	mov	r2, #0
80304880:	e5c32000 	strb	r2, [r3]
80304884:	e51b3018 	ldr	r3, [fp, #-24]	; 0xffffffe8
80304888:	e2832001 	add	r2, r3, #1
8030488c:	e50b2018 	str	r2, [fp, #-24]	; 0xffffffe8
80304890:	e1a02003 	mov	r2, r3
80304894:	e51b3024 	ldr	r3, [fp, #-36]	; 0xffffffdc
80304898:	e0834002 	add	r4, r3, r2
8030489c:	e24b301c 	sub	r3, fp, #28
803048a0:	e1a00003 	mov	r0, r3
803048a4:	ebffff2e 	bl	80304564 <atoi>
803048a8:	e1a03000 	mov	r3, r0
803048ac:	e6ef3073 	uxtb	r3, r3
803048b0:	e5c43000 	strb	r3, [r4]
803048b4:	e24b301c 	sub	r3, fp, #28
803048b8:	e50b3014 	str	r3, [fp, #-20]	; 0xffffffec
803048bc:	e51b3010 	ldr	r3, [fp, #-16]
803048c0:	e5d33000 	ldrb	r3, [r3]
803048c4:	e3530000 	cmp	r3, #0
803048c8:	1a000000 	bne	803048d0 <net_dots+0x12c>
803048cc:	ea00000b 	b	80304900 <net_dots+0x15c>
803048d0:	e51b3010 	ldr	r3, [fp, #-16]
803048d4:	e5d33000 	ldrb	r3, [r3]
803048d8:	e353002e 	cmp	r3, #46	; 0x2e
803048dc:	0a000001 	beq	803048e8 <net_dots+0x144>
803048e0:	e3a03000 	mov	r3, #0
803048e4:	ea00000b 	b	80304918 <net_dots+0x174>
803048e8:	e51b3010 	ldr	r3, [fp, #-16]
803048ec:	e2833001 	add	r3, r3, #1
803048f0:	e50b3010 	str	r3, [fp, #-16]
803048f4:	e51b3018 	ldr	r3, [fp, #-24]	; 0xffffffe8
803048f8:	e3530003 	cmp	r3, #3
803048fc:	daffffb4 	ble	803047d4 <net_dots+0x30>
80304900:	e51b3018 	ldr	r3, [fp, #-24]	; 0xffffffe8
80304904:	e3530004 	cmp	r3, #4
80304908:	0a000001 	beq	80304914 <net_dots+0x170>
8030490c:	e3a03000 	mov	r3, #0
80304910:	ea000000 	b	80304918 <net_dots+0x174>
80304914:	e3a03001 	mov	r3, #1
80304918:	e1a00003 	mov	r0, r3
8030491c:	e24bd008 	sub	sp, fp, #8
80304920:	e8bd8810 	pop	{r4, fp, pc}

80304924 <memcpy>:
80304924:	e52db004 	push	{fp}		; (str fp, [sp, #-4]!)
80304928:	e28db000 	add	fp, sp, #0
8030492c:	e24dd01c 	sub	sp, sp, #28
80304930:	e50b0010 	str	r0, [fp, #-16]
80304934:	e50b1014 	str	r1, [fp, #-20]	; 0xffffffec
80304938:	e50b2018 	str	r2, [fp, #-24]	; 0xffffffe8
8030493c:	e51b3010 	ldr	r3, [fp, #-16]
80304940:	e50b3008 	str	r3, [fp, #-8]
80304944:	e51b2008 	ldr	r2, [fp, #-8]
80304948:	e51b3018 	ldr	r3, [fp, #-24]	; 0xffffffe8
8030494c:	e0823003 	add	r3, r2, r3
80304950:	e50b300c 	str	r3, [fp, #-12]
80304954:	ea000007 	b	80304978 <memcpy+0x54>
80304958:	e51b3008 	ldr	r3, [fp, #-8]
8030495c:	e2832001 	add	r2, r3, #1
80304960:	e50b2008 	str	r2, [fp, #-8]
80304964:	e51b2014 	ldr	r2, [fp, #-20]	; 0xffffffec
80304968:	e2821001 	add	r1, r2, #1
8030496c:	e50b1014 	str	r1, [fp, #-20]	; 0xffffffec
80304970:	e5d22000 	ldrb	r2, [r2]
80304974:	e5c32000 	strb	r2, [r3]
80304978:	e51b2008 	ldr	r2, [fp, #-8]
8030497c:	e51b300c 	ldr	r3, [fp, #-12]
80304980:	e1520003 	cmp	r2, r3
80304984:	3afffff3 	bcc	80304958 <memcpy+0x34>
80304988:	e51b3010 	ldr	r3, [fp, #-16]
8030498c:	e1a00003 	mov	r0, r3
80304990:	e24bd000 	sub	sp, fp, #0
80304994:	e49db004 	pop	{fp}		; (ldr fp, [sp], #4)
80304998:	e12fff1e 	bx	lr

8030499c <memset>:
8030499c:	e52db004 	push	{fp}		; (str fp, [sp, #-4]!)
803049a0:	e28db000 	add	fp, sp, #0
803049a4:	e24dd01c 	sub	sp, sp, #28
803049a8:	e50b0010 	str	r0, [fp, #-16]
803049ac:	e50b1014 	str	r1, [fp, #-20]	; 0xffffffec
803049b0:	e50b2018 	str	r2, [fp, #-24]	; 0xffffffe8
803049b4:	e51b3010 	ldr	r3, [fp, #-16]
803049b8:	e50b3008 	str	r3, [fp, #-8]
803049bc:	e51b2008 	ldr	r2, [fp, #-8]
803049c0:	e51b3018 	ldr	r3, [fp, #-24]	; 0xffffffe8
803049c4:	e0823003 	add	r3, r2, r3
803049c8:	e50b300c 	str	r3, [fp, #-12]
803049cc:	ea000005 	b	803049e8 <memset+0x4c>
803049d0:	e51b3008 	ldr	r3, [fp, #-8]
803049d4:	e2832001 	add	r2, r3, #1
803049d8:	e50b2008 	str	r2, [fp, #-8]
803049dc:	e51b2014 	ldr	r2, [fp, #-20]	; 0xffffffec
803049e0:	e6ef2072 	uxtb	r2, r2
803049e4:	e5c32000 	strb	r2, [r3]
803049e8:	e51b2008 	ldr	r2, [fp, #-8]
803049ec:	e51b300c 	ldr	r3, [fp, #-12]
803049f0:	e1520003 	cmp	r2, r3
803049f4:	3afffff5 	bcc	803049d0 <memset+0x34>
803049f8:	e51b3010 	ldr	r3, [fp, #-16]
803049fc:	e1a00003 	mov	r0, r3
80304a00:	e24bd000 	sub	sp, fp, #0
80304a04:	e49db004 	pop	{fp}		; (ldr fp, [sp], #4)
80304a08:	e12fff1e 	bx	lr

80304a0c <memcmp>:
80304a0c:	e52db004 	push	{fp}		; (str fp, [sp, #-4]!)
80304a10:	e28db000 	add	fp, sp, #0
80304a14:	e24dd024 	sub	sp, sp, #36	; 0x24
80304a18:	e50b0018 	str	r0, [fp, #-24]	; 0xffffffe8
80304a1c:	e50b101c 	str	r1, [fp, #-28]	; 0xffffffe4
80304a20:	e50b2020 	str	r2, [fp, #-32]	; 0xffffffe0
80304a24:	e51b3018 	ldr	r3, [fp, #-24]	; 0xffffffe8
80304a28:	e50b3008 	str	r3, [fp, #-8]
80304a2c:	e51b301c 	ldr	r3, [fp, #-28]	; 0xffffffe4
80304a30:	e50b300c 	str	r3, [fp, #-12]
80304a34:	e51b2008 	ldr	r2, [fp, #-8]
80304a38:	e51b3020 	ldr	r3, [fp, #-32]	; 0xffffffe0
80304a3c:	e0823003 	add	r3, r2, r3
80304a40:	e50b3010 	str	r3, [fp, #-16]
80304a44:	ea000017 	b	80304aa8 <memcmp+0x9c>
80304a48:	e51b3008 	ldr	r3, [fp, #-8]
80304a4c:	e2832001 	add	r2, r3, #1
80304a50:	e50b2008 	str	r2, [fp, #-8]
80304a54:	e5d32000 	ldrb	r2, [r3]
80304a58:	e51b300c 	ldr	r3, [fp, #-12]
80304a5c:	e2831001 	add	r1, r3, #1
80304a60:	e50b100c 	str	r1, [fp, #-12]
80304a64:	e5d33000 	ldrb	r3, [r3]
80304a68:	e1520003 	cmp	r2, r3
80304a6c:	2a000001 	bcs	80304a78 <memcmp+0x6c>
80304a70:	e3e03000 	mvn	r3, #0
80304a74:	ea000010 	b	80304abc <memcmp+0xb0>
80304a78:	e51b3008 	ldr	r3, [fp, #-8]
80304a7c:	e2832001 	add	r2, r3, #1
80304a80:	e50b2008 	str	r2, [fp, #-8]
80304a84:	e5d32000 	ldrb	r2, [r3]
80304a88:	e51b300c 	ldr	r3, [fp, #-12]
80304a8c:	e2831001 	add	r1, r3, #1
80304a90:	e50b100c 	str	r1, [fp, #-12]
80304a94:	e5d33000 	ldrb	r3, [r3]
80304a98:	e1520003 	cmp	r2, r3
80304a9c:	9a000001 	bls	80304aa8 <memcmp+0x9c>
80304aa0:	e3a03001 	mov	r3, #1
80304aa4:	ea000004 	b	80304abc <memcmp+0xb0>
80304aa8:	e51b2008 	ldr	r2, [fp, #-8]
80304aac:	e51b3010 	ldr	r3, [fp, #-16]
80304ab0:	e1520003 	cmp	r2, r3
80304ab4:	3affffe3 	bcc	80304a48 <memcmp+0x3c>
80304ab8:	e3a03000 	mov	r3, #0
80304abc:	e1a00003 	mov	r0, r3
80304ac0:	e24bd000 	sub	sp, fp, #0
80304ac4:	e49db004 	pop	{fp}		; (ldr fp, [sp], #4)
80304ac8:	e12fff1e 	bx	lr

80304acc <dump_v>:
80304acc:	e92d4800 	push	{fp, lr}
80304ad0:	e28db004 	add	fp, sp, #4
80304ad4:	e24dd010 	sub	sp, sp, #16
80304ad8:	e50b0010 	str	r0, [fp, #-16]
80304adc:	e50b1014 	str	r1, [fp, #-20]	; 0xffffffec
80304ae0:	e51b3010 	ldr	r3, [fp, #-16]
80304ae4:	e50b3008 	str	r3, [fp, #-8]
80304ae8:	e51b3010 	ldr	r3, [fp, #-16]
80304aec:	e30603a0 	movw	r0, #25504	; 0x63a0
80304af0:	e3480030 	movt	r0, #32816	; 0x8030
80304af4:	e1a01003 	mov	r1, r3
80304af8:	ebfffe2c 	bl	803043b0 <printf>
80304afc:	e3a03000 	mov	r3, #0
80304b00:	e50b300c 	str	r3, [fp, #-12]
80304b04:	ea00000a 	b	80304b34 <dump_v+0x68>
80304b08:	e51b3008 	ldr	r3, [fp, #-8]
80304b0c:	e2832001 	add	r2, r3, #1
80304b10:	e50b2008 	str	r2, [fp, #-8]
80304b14:	e5d33000 	ldrb	r3, [r3]
80304b18:	e30603a8 	movw	r0, #25512	; 0x63a8
80304b1c:	e3480030 	movt	r0, #32816	; 0x8030
80304b20:	e1a01003 	mov	r1, r3
80304b24:	ebfffe21 	bl	803043b0 <printf>
80304b28:	e51b300c 	ldr	r3, [fp, #-12]
80304b2c:	e2833001 	add	r3, r3, #1
80304b30:	e50b300c 	str	r3, [fp, #-12]
80304b34:	e51b200c 	ldr	r2, [fp, #-12]
80304b38:	e51b3014 	ldr	r3, [fp, #-20]	; 0xffffffec
80304b3c:	e1520003 	cmp	r2, r3
80304b40:	bafffff0 	blt	80304b08 <dump_v+0x3c>
80304b44:	e24bd004 	sub	sp, fp, #4
80304b48:	e8bd8800 	pop	{fp, pc}

80304b4c <dump_b>:
80304b4c:	e92d4800 	push	{fp, lr}
80304b50:	e28db004 	add	fp, sp, #4
80304b54:	e24dd010 	sub	sp, sp, #16
80304b58:	e50b0010 	str	r0, [fp, #-16]
80304b5c:	e50b1014 	str	r1, [fp, #-20]	; 0xffffffec
80304b60:	e51b3010 	ldr	r3, [fp, #-16]
80304b64:	e50b3008 	str	r3, [fp, #-8]
80304b68:	ea00001b 	b	80304bdc <dump_b+0x90>
80304b6c:	e51b3010 	ldr	r3, [fp, #-16]
80304b70:	e30603a0 	movw	r0, #25504	; 0x63a0
80304b74:	e3480030 	movt	r0, #32816	; 0x8030
80304b78:	e1a01003 	mov	r1, r3
80304b7c:	ebfffe0b 	bl	803043b0 <printf>
80304b80:	e3a03000 	mov	r3, #0
80304b84:	e50b300c 	str	r3, [fp, #-12]
80304b88:	ea00000a 	b	80304bb8 <dump_b+0x6c>
80304b8c:	e51b3008 	ldr	r3, [fp, #-8]
80304b90:	e2832001 	add	r2, r3, #1
80304b94:	e50b2008 	str	r2, [fp, #-8]
80304b98:	e5d33000 	ldrb	r3, [r3]
80304b9c:	e30603a8 	movw	r0, #25512	; 0x63a8
80304ba0:	e3480030 	movt	r0, #32816	; 0x8030
80304ba4:	e1a01003 	mov	r1, r3
80304ba8:	ebfffe00 	bl	803043b0 <printf>
80304bac:	e51b300c 	ldr	r3, [fp, #-12]
80304bb0:	e2833001 	add	r3, r3, #1
80304bb4:	e50b300c 	str	r3, [fp, #-12]
80304bb8:	e51b300c 	ldr	r3, [fp, #-12]
80304bbc:	e353000f 	cmp	r3, #15
80304bc0:	dafffff1 	ble	80304b8c <dump_b+0x40>
80304bc4:	e30603b0 	movw	r0, #25520	; 0x63b0
80304bc8:	e3480030 	movt	r0, #32816	; 0x8030
80304bcc:	ebfffdf7 	bl	803043b0 <printf>
80304bd0:	e51b3010 	ldr	r3, [fp, #-16]
80304bd4:	e2833010 	add	r3, r3, #16
80304bd8:	e50b3010 	str	r3, [fp, #-16]
80304bdc:	e51b3014 	ldr	r3, [fp, #-20]	; 0xffffffec
80304be0:	e2432001 	sub	r2, r3, #1
80304be4:	e50b2014 	str	r2, [fp, #-20]	; 0xffffffec
80304be8:	e3530000 	cmp	r3, #0
80304bec:	1affffde 	bne	80304b6c <dump_b+0x20>
80304bf0:	e24bd004 	sub	sp, fp, #4
80304bf4:	e8bd8800 	pop	{fp, pc}

80304bf8 <dump_w>:
80304bf8:	e92d4800 	push	{fp, lr}
80304bfc:	e28db004 	add	fp, sp, #4
80304c00:	e24dd010 	sub	sp, sp, #16
80304c04:	e50b0010 	str	r0, [fp, #-16]
80304c08:	e50b1014 	str	r1, [fp, #-20]	; 0xffffffec
80304c0c:	e51b3010 	ldr	r3, [fp, #-16]
80304c10:	e50b3008 	str	r3, [fp, #-8]
80304c14:	ea00001b 	b	80304c88 <dump_w+0x90>
80304c18:	e51b3010 	ldr	r3, [fp, #-16]
80304c1c:	e30603a0 	movw	r0, #25504	; 0x63a0
80304c20:	e3480030 	movt	r0, #32816	; 0x8030
80304c24:	e1a01003 	mov	r1, r3
80304c28:	ebfffde0 	bl	803043b0 <printf>
80304c2c:	e3a03000 	mov	r3, #0
80304c30:	e50b300c 	str	r3, [fp, #-12]
80304c34:	ea00000a 	b	80304c64 <dump_w+0x6c>
80304c38:	e51b3008 	ldr	r3, [fp, #-8]
80304c3c:	e2832002 	add	r2, r3, #2
80304c40:	e50b2008 	str	r2, [fp, #-8]
80304c44:	e1d330b0 	ldrh	r3, [r3]
80304c48:	e30603b4 	movw	r0, #25524	; 0x63b4
80304c4c:	e3480030 	movt	r0, #32816	; 0x8030
80304c50:	e1a01003 	mov	r1, r3
80304c54:	ebfffdd5 	bl	803043b0 <printf>
80304c58:	e51b300c 	ldr	r3, [fp, #-12]
80304c5c:	e2833001 	add	r3, r3, #1
80304c60:	e50b300c 	str	r3, [fp, #-12]
80304c64:	e51b300c 	ldr	r3, [fp, #-12]
80304c68:	e3530007 	cmp	r3, #7
80304c6c:	dafffff1 	ble	80304c38 <dump_w+0x40>
80304c70:	e30603b0 	movw	r0, #25520	; 0x63b0
80304c74:	e3480030 	movt	r0, #32816	; 0x8030
80304c78:	ebfffdcc 	bl	803043b0 <printf>
80304c7c:	e51b3010 	ldr	r3, [fp, #-16]
80304c80:	e2833010 	add	r3, r3, #16
80304c84:	e50b3010 	str	r3, [fp, #-16]
80304c88:	e51b3014 	ldr	r3, [fp, #-20]	; 0xffffffec
80304c8c:	e2432001 	sub	r2, r3, #1
80304c90:	e50b2014 	str	r2, [fp, #-20]	; 0xffffffec
80304c94:	e3530000 	cmp	r3, #0
80304c98:	1affffde 	bne	80304c18 <dump_w+0x20>
80304c9c:	e24bd004 	sub	sp, fp, #4
80304ca0:	e8bd8800 	pop	{fp, pc}

80304ca4 <dump_l>:
80304ca4:	e92d4800 	push	{fp, lr}
80304ca8:	e28db004 	add	fp, sp, #4
80304cac:	e24dd010 	sub	sp, sp, #16
80304cb0:	e50b0010 	str	r0, [fp, #-16]
80304cb4:	e50b1014 	str	r1, [fp, #-20]	; 0xffffffec
80304cb8:	e51b3010 	ldr	r3, [fp, #-16]
80304cbc:	e50b3008 	str	r3, [fp, #-8]
80304cc0:	ea00001b 	b	80304d34 <dump_l+0x90>
80304cc4:	e51b3010 	ldr	r3, [fp, #-16]
80304cc8:	e30603a0 	movw	r0, #25504	; 0x63a0
80304ccc:	e3480030 	movt	r0, #32816	; 0x8030
80304cd0:	e1a01003 	mov	r1, r3
80304cd4:	ebfffdb5 	bl	803043b0 <printf>
80304cd8:	e3a03000 	mov	r3, #0
80304cdc:	e50b300c 	str	r3, [fp, #-12]
80304ce0:	ea00000a 	b	80304d10 <dump_l+0x6c>
80304ce4:	e51b3008 	ldr	r3, [fp, #-8]
80304ce8:	e2832004 	add	r2, r3, #4
80304cec:	e50b2008 	str	r2, [fp, #-8]
80304cf0:	e5933000 	ldr	r3, [r3]
80304cf4:	e30603bc 	movw	r0, #25532	; 0x63bc
80304cf8:	e3480030 	movt	r0, #32816	; 0x8030
80304cfc:	e1a01003 	mov	r1, r3
80304d00:	ebfffdaa 	bl	803043b0 <printf>
80304d04:	e51b300c 	ldr	r3, [fp, #-12]
80304d08:	e2833001 	add	r3, r3, #1
80304d0c:	e50b300c 	str	r3, [fp, #-12]
80304d10:	e51b300c 	ldr	r3, [fp, #-12]
80304d14:	e3530003 	cmp	r3, #3
80304d18:	dafffff1 	ble	80304ce4 <dump_l+0x40>
80304d1c:	e30603b0 	movw	r0, #25520	; 0x63b0
80304d20:	e3480030 	movt	r0, #32816	; 0x8030
80304d24:	ebfffda1 	bl	803043b0 <printf>
80304d28:	e51b3010 	ldr	r3, [fp, #-16]
80304d2c:	e2833010 	add	r3, r3, #16
80304d30:	e50b3010 	str	r3, [fp, #-16]
80304d34:	e51b3014 	ldr	r3, [fp, #-20]	; 0xffffffec
80304d38:	e2432001 	sub	r2, r3, #1
80304d3c:	e50b2014 	str	r2, [fp, #-20]	; 0xffffffec
80304d40:	e3530000 	cmp	r3, #0
80304d44:	1affffde 	bne	80304cc4 <dump_l+0x20>
80304d48:	e24bd004 	sub	sp, fp, #4
80304d4c:	e8bd8800 	pop	{fp, pc}

80304d50 <fill_l>:
80304d50:	e52db004 	push	{fp}		; (str fp, [sp, #-4]!)
80304d54:	e28db000 	add	fp, sp, #0
80304d58:	e24dd01c 	sub	sp, sp, #28
80304d5c:	e50b0010 	str	r0, [fp, #-16]
80304d60:	e50b1014 	str	r1, [fp, #-20]	; 0xffffffec
80304d64:	e50b2018 	str	r2, [fp, #-24]	; 0xffffffe8
80304d68:	e51b3010 	ldr	r3, [fp, #-16]
80304d6c:	e50b3008 	str	r3, [fp, #-8]
80304d70:	ea000004 	b	80304d88 <fill_l+0x38>
80304d74:	e51b3008 	ldr	r3, [fp, #-8]
80304d78:	e2832004 	add	r2, r3, #4
80304d7c:	e50b2008 	str	r2, [fp, #-8]
80304d80:	e51b2014 	ldr	r2, [fp, #-20]	; 0xffffffec
80304d84:	e5832000 	str	r2, [r3]
80304d88:	e51b3018 	ldr	r3, [fp, #-24]	; 0xffffffe8
80304d8c:	e2432001 	sub	r2, r3, #1
80304d90:	e50b2018 	str	r2, [fp, #-24]	; 0xffffffe8
80304d94:	e3530000 	cmp	r3, #0
80304d98:	1afffff5 	bne	80304d74 <fill_l+0x24>
80304d9c:	e24bd000 	sub	sp, fp, #0
80304da0:	e49db004 	pop	{fp}		; (ldr fp, [sp], #4)
80304da4:	e12fff1e 	bx	lr

80304da8 <cq_init>:
80304da8:	e52db004 	push	{fp}		; (str fp, [sp, #-4]!)
80304dac:	e28db000 	add	fp, sp, #0
80304db0:	e24dd014 	sub	sp, sp, #20
80304db4:	e50b0010 	str	r0, [fp, #-16]
80304db8:	e30831f8 	movw	r3, #33272	; 0x81f8
80304dbc:	e3483031 	movt	r3, #32817	; 0x8031
80304dc0:	e5933000 	ldr	r3, [r3]
80304dc4:	e3530004 	cmp	r3, #4
80304dc8:	da000001 	ble	80304dd4 <cq_init+0x2c>
80304dcc:	e3a03000 	mov	r3, #0
80304dd0:	ea00002c 	b	80304e88 <cq_init+0xe0>
80304dd4:	e30831f8 	movw	r3, #33272	; 0x81f8
80304dd8:	e3483031 	movt	r3, #32817	; 0x8031
80304ddc:	e5932000 	ldr	r2, [r3]
80304de0:	e2821001 	add	r1, r2, #1
80304de4:	e30831f8 	movw	r3, #33272	; 0x81f8
80304de8:	e3483031 	movt	r3, #32817	; 0x8031
80304dec:	e5831000 	str	r1, [r3]
80304df0:	e1a03002 	mov	r3, r2
80304df4:	e1a03283 	lsl	r3, r3, #5
80304df8:	e0833002 	add	r3, r3, r2
80304dfc:	e1a03183 	lsl	r3, r3, #3
80304e00:	e0623003 	rsb	r3, r2, r3
80304e04:	e1a03103 	lsl	r3, r3, #2
80304e08:	e3082218 	movw	r2, #33304	; 0x8218
80304e0c:	e3482031 	movt	r2, #32817	; 0x8031
80304e10:	e0833002 	add	r3, r3, r2
80304e14:	e50b3008 	str	r3, [fp, #-8]
80304e18:	e51b3008 	ldr	r3, [fp, #-8]
80304e1c:	e3a02b01 	mov	r2, #1024	; 0x400
80304e20:	e5832410 	str	r2, [r3, #1040]	; 0x410
80304e24:	e51b3008 	ldr	r3, [fp, #-8]
80304e28:	e3a02000 	mov	r2, #0
80304e2c:	e5832414 	str	r2, [r3, #1044]	; 0x414
80304e30:	e51b2008 	ldr	r2, [fp, #-8]
80304e34:	e51b3008 	ldr	r3, [fp, #-8]
80304e38:	e5832400 	str	r2, [r3, #1024]	; 0x400
80304e3c:	e51b3008 	ldr	r3, [fp, #-8]
80304e40:	e5932400 	ldr	r2, [r3, #1024]	; 0x400
80304e44:	e51b3008 	ldr	r3, [fp, #-8]
80304e48:	e5832408 	str	r2, [r3, #1032]	; 0x408
80304e4c:	e51b3008 	ldr	r3, [fp, #-8]
80304e50:	e5932408 	ldr	r2, [r3, #1032]	; 0x408
80304e54:	e51b3008 	ldr	r3, [fp, #-8]
80304e58:	e5832404 	str	r2, [r3, #1028]	; 0x404
80304e5c:	e51b3008 	ldr	r3, [fp, #-8]
80304e60:	e5933400 	ldr	r3, [r3, #1024]	; 0x400
80304e64:	e51b2008 	ldr	r2, [fp, #-8]
80304e68:	e5922410 	ldr	r2, [r2, #1040]	; 0x410
80304e6c:	e0832002 	add	r2, r3, r2
80304e70:	e51b3008 	ldr	r3, [fp, #-8]
80304e74:	e583240c 	str	r2, [r3, #1036]	; 0x40c
80304e78:	e51b3008 	ldr	r3, [fp, #-8]
80304e7c:	e3a02000 	mov	r2, #0
80304e80:	e5832418 	str	r2, [r3, #1048]	; 0x418
80304e84:	e51b3008 	ldr	r3, [fp, #-8]
80304e88:	e1a00003 	mov	r0, r3
80304e8c:	e24bd000 	sub	sp, fp, #0
80304e90:	e49db004 	pop	{fp}		; (ldr fp, [sp], #4)
80304e94:	e12fff1e 	bx	lr

80304e98 <cq_count>:
80304e98:	e52db004 	push	{fp}		; (str fp, [sp, #-4]!)
80304e9c:	e28db000 	add	fp, sp, #0
80304ea0:	e24dd00c 	sub	sp, sp, #12
80304ea4:	e50b0008 	str	r0, [fp, #-8]
80304ea8:	e51b3008 	ldr	r3, [fp, #-8]
80304eac:	e5933414 	ldr	r3, [r3, #1044]	; 0x414
80304eb0:	e1a00003 	mov	r0, r3
80304eb4:	e24bd000 	sub	sp, fp, #0
80304eb8:	e49db004 	pop	{fp}		; (ldr fp, [sp], #4)
80304ebc:	e12fff1e 	bx	lr

80304ec0 <cq_space>:
80304ec0:	e52db004 	push	{fp}		; (str fp, [sp, #-4]!)
80304ec4:	e28db000 	add	fp, sp, #0
80304ec8:	e24dd00c 	sub	sp, sp, #12
80304ecc:	e50b0008 	str	r0, [fp, #-8]
80304ed0:	e51b3008 	ldr	r3, [fp, #-8]
80304ed4:	e5932410 	ldr	r2, [r3, #1040]	; 0x410
80304ed8:	e51b3008 	ldr	r3, [fp, #-8]
80304edc:	e5933414 	ldr	r3, [r3, #1044]	; 0x414
80304ee0:	e0633002 	rsb	r3, r3, r2
80304ee4:	e1a00003 	mov	r0, r3
80304ee8:	e24bd000 	sub	sp, fp, #0
80304eec:	e49db004 	pop	{fp}		; (ldr fp, [sp], #4)
80304ef0:	e12fff1e 	bx	lr

80304ef4 <cq_add>:
80304ef4:	e52db004 	push	{fp}		; (str fp, [sp, #-4]!)
80304ef8:	e28db000 	add	fp, sp, #0
80304efc:	e24dd00c 	sub	sp, sp, #12
80304f00:	e50b0008 	str	r0, [fp, #-8]
80304f04:	e50b100c 	str	r1, [fp, #-12]
80304f08:	e51b3008 	ldr	r3, [fp, #-8]
80304f0c:	e5932414 	ldr	r2, [r3, #1044]	; 0x414
80304f10:	e51b3008 	ldr	r3, [fp, #-8]
80304f14:	e5933410 	ldr	r3, [r3, #1040]	; 0x410
80304f18:	e1520003 	cmp	r2, r3
80304f1c:	aa000017 	bge	80304f80 <cq_add+0x8c>
80304f20:	e51b3008 	ldr	r3, [fp, #-8]
80304f24:	e5933414 	ldr	r3, [r3, #1044]	; 0x414
80304f28:	e2832001 	add	r2, r3, #1
80304f2c:	e51b3008 	ldr	r3, [fp, #-8]
80304f30:	e5832414 	str	r2, [r3, #1044]	; 0x414
80304f34:	e51b3008 	ldr	r3, [fp, #-8]
80304f38:	e5933404 	ldr	r3, [r3, #1028]	; 0x404
80304f3c:	e2831001 	add	r1, r3, #1
80304f40:	e51b2008 	ldr	r2, [fp, #-8]
80304f44:	e5821404 	str	r1, [r2, #1028]	; 0x404
80304f48:	e51b200c 	ldr	r2, [fp, #-12]
80304f4c:	e6ef2072 	uxtb	r2, r2
80304f50:	e5c32000 	strb	r2, [r3]
80304f54:	e51b3008 	ldr	r3, [fp, #-8]
80304f58:	e5932404 	ldr	r2, [r3, #1028]	; 0x404
80304f5c:	e51b3008 	ldr	r3, [fp, #-8]
80304f60:	e593340c 	ldr	r3, [r3, #1036]	; 0x40c
80304f64:	e1520003 	cmp	r2, r3
80304f68:	3a000009 	bcc	80304f94 <cq_add+0xa0>
80304f6c:	e51b3008 	ldr	r3, [fp, #-8]
80304f70:	e5932400 	ldr	r2, [r3, #1024]	; 0x400
80304f74:	e51b3008 	ldr	r3, [fp, #-8]
80304f78:	e5832404 	str	r2, [r3, #1028]	; 0x404
80304f7c:	ea000004 	b	80304f94 <cq_add+0xa0>
80304f80:	e51b3008 	ldr	r3, [fp, #-8]
80304f84:	e5933418 	ldr	r3, [r3, #1048]	; 0x418
80304f88:	e2832001 	add	r2, r3, #1
80304f8c:	e51b3008 	ldr	r3, [fp, #-8]
80304f90:	e5832418 	str	r2, [r3, #1048]	; 0x418
80304f94:	e24bd000 	sub	sp, fp, #0
80304f98:	e49db004 	pop	{fp}		; (ldr fp, [sp], #4)
80304f9c:	e12fff1e 	bx	lr

80304fa0 <cq_toss>:
80304fa0:	e52db004 	push	{fp}		; (str fp, [sp, #-4]!)
80304fa4:	e28db000 	add	fp, sp, #0
80304fa8:	e24dd00c 	sub	sp, sp, #12
80304fac:	e50b0008 	str	r0, [fp, #-8]
80304fb0:	e51b3008 	ldr	r3, [fp, #-8]
80304fb4:	e5933418 	ldr	r3, [r3, #1048]	; 0x418
80304fb8:	e1a00003 	mov	r0, r3
80304fbc:	e24bd000 	sub	sp, fp, #0
80304fc0:	e49db004 	pop	{fp}		; (ldr fp, [sp], #4)
80304fc4:	e12fff1e 	bx	lr

80304fc8 <cq_remove>:
80304fc8:	e52db004 	push	{fp}		; (str fp, [sp, #-4]!)
80304fcc:	e28db000 	add	fp, sp, #0
80304fd0:	e24dd014 	sub	sp, sp, #20
80304fd4:	e50b0010 	str	r0, [fp, #-16]
80304fd8:	e51b3010 	ldr	r3, [fp, #-16]
80304fdc:	e5933414 	ldr	r3, [r3, #1044]	; 0x414
80304fe0:	e3530000 	cmp	r3, #0
80304fe4:	ca000001 	bgt	80304ff0 <cq_remove+0x28>
80304fe8:	e3e03000 	mvn	r3, #0
80304fec:	ea000016 	b	8030504c <cq_remove+0x84>
80304ff0:	e51b3010 	ldr	r3, [fp, #-16]
80304ff4:	e5933408 	ldr	r3, [r3, #1032]	; 0x408
80304ff8:	e2831001 	add	r1, r3, #1
80304ffc:	e51b2010 	ldr	r2, [fp, #-16]
80305000:	e5821408 	str	r1, [r2, #1032]	; 0x408
80305004:	e5d33000 	ldrb	r3, [r3]
80305008:	e50b3008 	str	r3, [fp, #-8]
8030500c:	e51b3010 	ldr	r3, [fp, #-16]
80305010:	e5932408 	ldr	r2, [r3, #1032]	; 0x408
80305014:	e51b3010 	ldr	r3, [fp, #-16]
80305018:	e593340c 	ldr	r3, [r3, #1036]	; 0x40c
8030501c:	e1520003 	cmp	r2, r3
80305020:	3a000003 	bcc	80305034 <cq_remove+0x6c>
80305024:	e51b3010 	ldr	r3, [fp, #-16]
80305028:	e5932400 	ldr	r2, [r3, #1024]	; 0x400
8030502c:	e51b3010 	ldr	r3, [fp, #-16]
80305030:	e5832408 	str	r2, [r3, #1032]	; 0x408
80305034:	e51b3010 	ldr	r3, [fp, #-16]
80305038:	e5933414 	ldr	r3, [r3, #1044]	; 0x414
8030503c:	e2432001 	sub	r2, r3, #1
80305040:	e51b3010 	ldr	r3, [fp, #-16]
80305044:	e5832414 	str	r2, [r3, #1044]	; 0x414
80305048:	e51b3008 	ldr	r3, [fp, #-8]
8030504c:	e1a00003 	mov	r0, r3
80305050:	e24bd000 	sub	sp, fp, #0
80305054:	e49db004 	pop	{fp}		; (ldr fp, [sp], #4)
80305058:	e12fff1e 	bx	lr

8030505c <strcmp>:
8030505c:	e52db004 	push	{fp}		; (str fp, [sp, #-4]!)
80305060:	e28db000 	add	fp, sp, #0
80305064:	e24dd014 	sub	sp, sp, #20
80305068:	e50b0010 	str	r0, [fp, #-16]
8030506c:	e50b1014 	str	r1, [fp, #-20]	; 0xffffffec
80305070:	ea000015 	b	803050cc <strcmp+0x70>
80305074:	e51b3014 	ldr	r3, [fp, #-20]	; 0xffffffec
80305078:	e2832001 	add	r2, r3, #1
8030507c:	e50b2014 	str	r2, [fp, #-20]	; 0xffffffec
80305080:	e5d33000 	ldrb	r3, [r3]
80305084:	e50b300c 	str	r3, [fp, #-12]
80305088:	e51b300c 	ldr	r3, [fp, #-12]
8030508c:	e3530000 	cmp	r3, #0
80305090:	0a00000b 	beq	803050c4 <strcmp+0x68>
80305094:	e51b2008 	ldr	r2, [fp, #-8]
80305098:	e51b300c 	ldr	r3, [fp, #-12]
8030509c:	e1520003 	cmp	r2, r3
803050a0:	aa000001 	bge	803050ac <strcmp+0x50>
803050a4:	e3a03001 	mov	r3, #1
803050a8:	ea000018 	b	80305110 <strcmp+0xb4>
803050ac:	e51b2008 	ldr	r2, [fp, #-8]
803050b0:	e51b300c 	ldr	r3, [fp, #-12]
803050b4:	e1520003 	cmp	r2, r3
803050b8:	da000003 	ble	803050cc <strcmp+0x70>
803050bc:	e3e03000 	mvn	r3, #0
803050c0:	ea000012 	b	80305110 <strcmp+0xb4>
803050c4:	e3a03001 	mov	r3, #1
803050c8:	ea000010 	b	80305110 <strcmp+0xb4>
803050cc:	e51b3010 	ldr	r3, [fp, #-16]
803050d0:	e2832001 	add	r2, r3, #1
803050d4:	e50b2010 	str	r2, [fp, #-16]
803050d8:	e5d33000 	ldrb	r3, [r3]
803050dc:	e50b3008 	str	r3, [fp, #-8]
803050e0:	e51b3008 	ldr	r3, [fp, #-8]
803050e4:	e3530000 	cmp	r3, #0
803050e8:	1affffe1 	bne	80305074 <strcmp+0x18>
803050ec:	e51b3014 	ldr	r3, [fp, #-20]	; 0xffffffec
803050f0:	e5d33000 	ldrb	r3, [r3]
803050f4:	e50b300c 	str	r3, [fp, #-12]
803050f8:	e51b300c 	ldr	r3, [fp, #-12]
803050fc:	e3530000 	cmp	r3, #0
80305100:	0a000001 	beq	8030510c <strcmp+0xb0>
80305104:	e3e03000 	mvn	r3, #0
80305108:	ea000000 	b	80305110 <strcmp+0xb4>
8030510c:	e3a03000 	mov	r3, #0
80305110:	e1a00003 	mov	r0, r3
80305114:	e24bd000 	sub	sp, fp, #0
80305118:	e49db004 	pop	{fp}		; (ldr fp, [sp], #4)
8030511c:	e12fff1e 	bx	lr

80305120 <strcpy>:
80305120:	e52db004 	push	{fp}		; (str fp, [sp, #-4]!)
80305124:	e28db000 	add	fp, sp, #0
80305128:	e24dd014 	sub	sp, sp, #20
8030512c:	e50b0010 	str	r0, [fp, #-16]
80305130:	e50b1014 	str	r1, [fp, #-20]	; 0xffffffec
80305134:	e51b3010 	ldr	r3, [fp, #-16]
80305138:	e50b3008 	str	r3, [fp, #-8]
8030513c:	e51b3008 	ldr	r3, [fp, #-8]
80305140:	e2832001 	add	r2, r3, #1
80305144:	e50b2008 	str	r2, [fp, #-8]
80305148:	e51b2014 	ldr	r2, [fp, #-20]	; 0xffffffec
8030514c:	e2821001 	add	r1, r2, #1
80305150:	e50b1014 	str	r1, [fp, #-20]	; 0xffffffec
80305154:	e5d22000 	ldrb	r2, [r2]
80305158:	e54b2009 	strb	r2, [fp, #-9]
8030515c:	e55b2009 	ldrb	r2, [fp, #-9]
80305160:	e5c32000 	strb	r2, [r3]
80305164:	e55b3009 	ldrb	r3, [fp, #-9]
80305168:	e3530000 	cmp	r3, #0
8030516c:	1afffff2 	bne	8030513c <strcpy+0x1c>
80305170:	e51b3010 	ldr	r3, [fp, #-16]
80305174:	e1a00003 	mov	r0, r3
80305178:	e24bd000 	sub	sp, fp, #0
8030517c:	e49db004 	pop	{fp}		; (ldr fp, [sp], #4)
80305180:	e12fff1e 	bx	lr

80305184 <safe_thr_new>:
80305184:	e92d4800 	push	{fp, lr}
80305188:	e28db004 	add	fp, sp, #4
8030518c:	e24dd020 	sub	sp, sp, #32
80305190:	e50b0010 	str	r0, [fp, #-16]
80305194:	e50b1014 	str	r1, [fp, #-20]	; 0xffffffec
80305198:	e50b2018 	str	r2, [fp, #-24]	; 0xffffffe8
8030519c:	e50b301c 	str	r3, [fp, #-28]	; 0xffffffe4
803051a0:	e59b3004 	ldr	r3, [fp, #4]
803051a4:	e58d3000 	str	r3, [sp]
803051a8:	e51b0010 	ldr	r0, [fp, #-16]
803051ac:	e51b1014 	ldr	r1, [fp, #-20]	; 0xffffffec
803051b0:	e51b2018 	ldr	r2, [fp, #-24]	; 0xffffffe8
803051b4:	e51b301c 	ldr	r3, [fp, #-28]	; 0xffffffe4
803051b8:	ebffefc1 	bl	803010c4 <thr_new>
803051bc:	e50b0008 	str	r0, [fp, #-8]
803051c0:	e51b3008 	ldr	r3, [fp, #-8]
803051c4:	e3530000 	cmp	r3, #0
803051c8:	1a000006 	bne	803051e8 <safe_thr_new+0x64>
803051cc:	e30603c4 	movw	r0, #25540	; 0x63c4
803051d0:	e3480030 	movt	r0, #32816	; 0x8030
803051d4:	e51b1010 	ldr	r1, [fp, #-16]
803051d8:	ebfffc74 	bl	803043b0 <printf>
803051dc:	e30603e4 	movw	r0, #25572	; 0x63e4
803051e0:	e3480030 	movt	r0, #32816	; 0x8030
803051e4:	ebfffc81 	bl	803043f0 <panic>
803051e8:	e51b3008 	ldr	r3, [fp, #-8]
803051ec:	e1a00003 	mov	r0, r3
803051f0:	e24bd004 	sub	sp, fp, #4
803051f4:	e8bd8800 	pop	{fp, pc}

803051f8 <safe_sem_new>:
803051f8:	e92d4800 	push	{fp, lr}
803051fc:	e28db004 	add	fp, sp, #4
80305200:	e24dd010 	sub	sp, sp, #16
80305204:	e50b0010 	str	r0, [fp, #-16]
80305208:	e51b3010 	ldr	r3, [fp, #-16]
8030520c:	e1a00003 	mov	r0, r3
80305210:	e3a01000 	mov	r1, #0
80305214:	ebfff400 	bl	8030221c <sem_new>
80305218:	e50b0008 	str	r0, [fp, #-8]
8030521c:	e51b3008 	ldr	r3, [fp, #-8]
80305220:	e3530000 	cmp	r3, #0
80305224:	1a000005 	bne	80305240 <safe_sem_new+0x48>
80305228:	e30603f4 	movw	r0, #25588	; 0x63f4
8030522c:	e3480030 	movt	r0, #32816	; 0x8030
80305230:	ebfffc5e 	bl	803043b0 <printf>
80305234:	e3060414 	movw	r0, #25620	; 0x6414
80305238:	e3480030 	movt	r0, #32816	; 0x8030
8030523c:	ebfffc6b 	bl	803043f0 <panic>
80305240:	e51b3008 	ldr	r3, [fp, #-8]
80305244:	e1a00003 	mov	r0, r3
80305248:	e24bd004 	sub	sp, fp, #4
8030524c:	e8bd8800 	pop	{fp, pc}

80305250 <raise>:
80305250:	e52db004 	push	{fp}		; (str fp, [sp, #-4]!)
80305254:	e28db000 	add	fp, sp, #0
80305258:	e24dd00c 	sub	sp, sp, #12
8030525c:	e50b0008 	str	r0, [fp, #-8]
80305260:	e3a03000 	mov	r3, #0
80305264:	e1a00003 	mov	r0, r3
80305268:	e24bd000 	sub	sp, fp, #0
8030526c:	e49db004 	pop	{fp}		; (ldr fp, [sp], #4)
80305270:	e12fff1e 	bx	lr

80305274 <__aeabi_uidiv>:
80305274:	e2512001 	subs	r2, r1, #1
80305278:	012fff1e 	bxeq	lr
8030527c:	3a000074 	bcc	80305454 <__aeabi_uidiv+0x1e0>
80305280:	e1500001 	cmp	r0, r1
80305284:	9a00006b 	bls	80305438 <__aeabi_uidiv+0x1c4>
80305288:	e1110002 	tst	r1, r2
8030528c:	0a00006c 	beq	80305444 <__aeabi_uidiv+0x1d0>
80305290:	e16f3f10 	clz	r3, r0
80305294:	e16f2f11 	clz	r2, r1
80305298:	e0423003 	sub	r3, r2, r3
8030529c:	e273301f 	rsbs	r3, r3, #31
803052a0:	10833083 	addne	r3, r3, r3, lsl #1
803052a4:	e3a02000 	mov	r2, #0
803052a8:	108ff103 	addne	pc, pc, r3, lsl #2
803052ac:	e1a00000 	nop			; (mov r0, r0)
803052b0:	e1500f81 	cmp	r0, r1, lsl #31
803052b4:	e0a22002 	adc	r2, r2, r2
803052b8:	20400f81 	subcs	r0, r0, r1, lsl #31
803052bc:	e1500f01 	cmp	r0, r1, lsl #30
803052c0:	e0a22002 	adc	r2, r2, r2
803052c4:	20400f01 	subcs	r0, r0, r1, lsl #30
803052c8:	e1500e81 	cmp	r0, r1, lsl #29
803052cc:	e0a22002 	adc	r2, r2, r2
803052d0:	20400e81 	subcs	r0, r0, r1, lsl #29
803052d4:	e1500e01 	cmp	r0, r1, lsl #28
803052d8:	e0a22002 	adc	r2, r2, r2
803052dc:	20400e01 	subcs	r0, r0, r1, lsl #28
803052e0:	e1500d81 	cmp	r0, r1, lsl #27
803052e4:	e0a22002 	adc	r2, r2, r2
803052e8:	20400d81 	subcs	r0, r0, r1, lsl #27
803052ec:	e1500d01 	cmp	r0, r1, lsl #26
803052f0:	e0a22002 	adc	r2, r2, r2
803052f4:	20400d01 	subcs	r0, r0, r1, lsl #26
803052f8:	e1500c81 	cmp	r0, r1, lsl #25
803052fc:	e0a22002 	adc	r2, r2, r2
80305300:	20400c81 	subcs	r0, r0, r1, lsl #25
80305304:	e1500c01 	cmp	r0, r1, lsl #24
80305308:	e0a22002 	adc	r2, r2, r2
8030530c:	20400c01 	subcs	r0, r0, r1, lsl #24
80305310:	e1500b81 	cmp	r0, r1, lsl #23
80305314:	e0a22002 	adc	r2, r2, r2
80305318:	20400b81 	subcs	r0, r0, r1, lsl #23
8030531c:	e1500b01 	cmp	r0, r1, lsl #22
80305320:	e0a22002 	adc	r2, r2, r2
80305324:	20400b01 	subcs	r0, r0, r1, lsl #22
80305328:	e1500a81 	cmp	r0, r1, lsl #21
8030532c:	e0a22002 	adc	r2, r2, r2
80305330:	20400a81 	subcs	r0, r0, r1, lsl #21
80305334:	e1500a01 	cmp	r0, r1, lsl #20
80305338:	e0a22002 	adc	r2, r2, r2
8030533c:	20400a01 	subcs	r0, r0, r1, lsl #20
80305340:	e1500981 	cmp	r0, r1, lsl #19
80305344:	e0a22002 	adc	r2, r2, r2
80305348:	20400981 	subcs	r0, r0, r1, lsl #19
8030534c:	e1500901 	cmp	r0, r1, lsl #18
80305350:	e0a22002 	adc	r2, r2, r2
80305354:	20400901 	subcs	r0, r0, r1, lsl #18
80305358:	e1500881 	cmp	r0, r1, lsl #17
8030535c:	e0a22002 	adc	r2, r2, r2
80305360:	20400881 	subcs	r0, r0, r1, lsl #17
80305364:	e1500801 	cmp	r0, r1, lsl #16
80305368:	e0a22002 	adc	r2, r2, r2
8030536c:	20400801 	subcs	r0, r0, r1, lsl #16
80305370:	e1500781 	cmp	r0, r1, lsl #15
80305374:	e0a22002 	adc	r2, r2, r2
80305378:	20400781 	subcs	r0, r0, r1, lsl #15
8030537c:	e1500701 	cmp	r0, r1, lsl #14
80305380:	e0a22002 	adc	r2, r2, r2
80305384:	20400701 	subcs	r0, r0, r1, lsl #14
80305388:	e1500681 	cmp	r0, r1, lsl #13
8030538c:	e0a22002 	adc	r2, r2, r2
80305390:	20400681 	subcs	r0, r0, r1, lsl #13
80305394:	e1500601 	cmp	r0, r1, lsl #12
80305398:	e0a22002 	adc	r2, r2, r2
8030539c:	20400601 	subcs	r0, r0, r1, lsl #12
803053a0:	e1500581 	cmp	r0, r1, lsl #11
803053a4:	e0a22002 	adc	r2, r2, r2
803053a8:	20400581 	subcs	r0, r0, r1, lsl #11
803053ac:	e1500501 	cmp	r0, r1, lsl #10
803053b0:	e0a22002 	adc	r2, r2, r2
803053b4:	20400501 	subcs	r0, r0, r1, lsl #10
803053b8:	e1500481 	cmp	r0, r1, lsl #9
803053bc:	e0a22002 	adc	r2, r2, r2
803053c0:	20400481 	subcs	r0, r0, r1, lsl #9
803053c4:	e1500401 	cmp	r0, r1, lsl #8
803053c8:	e0a22002 	adc	r2, r2, r2
803053cc:	20400401 	subcs	r0, r0, r1, lsl #8
803053d0:	e1500381 	cmp	r0, r1, lsl #7
803053d4:	e0a22002 	adc	r2, r2, r2
803053d8:	20400381 	subcs	r0, r0, r1, lsl #7
803053dc:	e1500301 	cmp	r0, r1, lsl #6
803053e0:	e0a22002 	adc	r2, r2, r2
803053e4:	20400301 	subcs	r0, r0, r1, lsl #6
803053e8:	e1500281 	cmp	r0, r1, lsl #5
803053ec:	e0a22002 	adc	r2, r2, r2
803053f0:	20400281 	subcs	r0, r0, r1, lsl #5
803053f4:	e1500201 	cmp	r0, r1, lsl #4
803053f8:	e0a22002 	adc	r2, r2, r2
803053fc:	20400201 	subcs	r0, r0, r1, lsl #4
80305400:	e1500181 	cmp	r0, r1, lsl #3
80305404:	e0a22002 	adc	r2, r2, r2
80305408:	20400181 	subcs	r0, r0, r1, lsl #3
8030540c:	e1500101 	cmp	r0, r1, lsl #2
80305410:	e0a22002 	adc	r2, r2, r2
80305414:	20400101 	subcs	r0, r0, r1, lsl #2
80305418:	e1500081 	cmp	r0, r1, lsl #1
8030541c:	e0a22002 	adc	r2, r2, r2
80305420:	20400081 	subcs	r0, r0, r1, lsl #1
80305424:	e1500001 	cmp	r0, r1
80305428:	e0a22002 	adc	r2, r2, r2
8030542c:	20400001 	subcs	r0, r0, r1
80305430:	e1a00002 	mov	r0, r2
80305434:	e12fff1e 	bx	lr
80305438:	03a00001 	moveq	r0, #1
8030543c:	13a00000 	movne	r0, #0
80305440:	e12fff1e 	bx	lr
80305444:	e16f2f11 	clz	r2, r1
80305448:	e262201f 	rsb	r2, r2, #31
8030544c:	e1a00230 	lsr	r0, r0, r2
80305450:	e12fff1e 	bx	lr
80305454:	e3500000 	cmp	r0, #0
80305458:	13e00000 	mvnne	r0, #0
8030545c:	ea000097 	b	803056c0 <__aeabi_idiv0>

80305460 <__aeabi_uidivmod>:
80305460:	e3510000 	cmp	r1, #0
80305464:	0afffffa 	beq	80305454 <__aeabi_uidiv+0x1e0>
80305468:	e92d4003 	push	{r0, r1, lr}
8030546c:	ebffff80 	bl	80305274 <__aeabi_uidiv>
80305470:	e8bd4006 	pop	{r1, r2, lr}
80305474:	e0030092 	mul	r3, r2, r0
80305478:	e0411003 	sub	r1, r1, r3
8030547c:	e12fff1e 	bx	lr

80305480 <__aeabi_idiv>:
80305480:	e3510000 	cmp	r1, #0
80305484:	0a000081 	beq	80305690 <.divsi3_skip_div0_test+0x208>

80305488 <.divsi3_skip_div0_test>:
80305488:	e020c001 	eor	ip, r0, r1
8030548c:	42611000 	rsbmi	r1, r1, #0
80305490:	e2512001 	subs	r2, r1, #1
80305494:	0a000070 	beq	8030565c <.divsi3_skip_div0_test+0x1d4>
80305498:	e1b03000 	movs	r3, r0
8030549c:	42603000 	rsbmi	r3, r0, #0
803054a0:	e1530001 	cmp	r3, r1
803054a4:	9a00006f 	bls	80305668 <.divsi3_skip_div0_test+0x1e0>
803054a8:	e1110002 	tst	r1, r2
803054ac:	0a000071 	beq	80305678 <.divsi3_skip_div0_test+0x1f0>
803054b0:	e16f2f13 	clz	r2, r3
803054b4:	e16f0f11 	clz	r0, r1
803054b8:	e0402002 	sub	r2, r0, r2
803054bc:	e272201f 	rsbs	r2, r2, #31
803054c0:	10822082 	addne	r2, r2, r2, lsl #1
803054c4:	e3a00000 	mov	r0, #0
803054c8:	108ff102 	addne	pc, pc, r2, lsl #2
803054cc:	e1a00000 	nop			; (mov r0, r0)
803054d0:	e1530f81 	cmp	r3, r1, lsl #31
803054d4:	e0a00000 	adc	r0, r0, r0
803054d8:	20433f81 	subcs	r3, r3, r1, lsl #31
803054dc:	e1530f01 	cmp	r3, r1, lsl #30
803054e0:	e0a00000 	adc	r0, r0, r0
803054e4:	20433f01 	subcs	r3, r3, r1, lsl #30
803054e8:	e1530e81 	cmp	r3, r1, lsl #29
803054ec:	e0a00000 	adc	r0, r0, r0
803054f0:	20433e81 	subcs	r3, r3, r1, lsl #29
803054f4:	e1530e01 	cmp	r3, r1, lsl #28
803054f8:	e0a00000 	adc	r0, r0, r0
803054fc:	20433e01 	subcs	r3, r3, r1, lsl #28
80305500:	e1530d81 	cmp	r3, r1, lsl #27
80305504:	e0a00000 	adc	r0, r0, r0
80305508:	20433d81 	subcs	r3, r3, r1, lsl #27
8030550c:	e1530d01 	cmp	r3, r1, lsl #26
80305510:	e0a00000 	adc	r0, r0, r0
80305514:	20433d01 	subcs	r3, r3, r1, lsl #26
80305518:	e1530c81 	cmp	r3, r1, lsl #25
8030551c:	e0a00000 	adc	r0, r0, r0
80305520:	20433c81 	subcs	r3, r3, r1, lsl #25
80305524:	e1530c01 	cmp	r3, r1, lsl #24
80305528:	e0a00000 	adc	r0, r0, r0
8030552c:	20433c01 	subcs	r3, r3, r1, lsl #24
80305530:	e1530b81 	cmp	r3, r1, lsl #23
80305534:	e0a00000 	adc	r0, r0, r0
80305538:	20433b81 	subcs	r3, r3, r1, lsl #23
8030553c:	e1530b01 	cmp	r3, r1, lsl #22
80305540:	e0a00000 	adc	r0, r0, r0
80305544:	20433b01 	subcs	r3, r3, r1, lsl #22
80305548:	e1530a81 	cmp	r3, r1, lsl #21
8030554c:	e0a00000 	adc	r0, r0, r0
80305550:	20433a81 	subcs	r3, r3, r1, lsl #21
80305554:	e1530a01 	cmp	r3, r1, lsl #20
80305558:	e0a00000 	adc	r0, r0, r0
8030555c:	20433a01 	subcs	r3, r3, r1, lsl #20
80305560:	e1530981 	cmp	r3, r1, lsl #19
80305564:	e0a00000 	adc	r0, r0, r0
80305568:	20433981 	subcs	r3, r3, r1, lsl #19
8030556c:	e1530901 	cmp	r3, r1, lsl #18
80305570:	e0a00000 	adc	r0, r0, r0
80305574:	20433901 	subcs	r3, r3, r1, lsl #18
80305578:	e1530881 	cmp	r3, r1, lsl #17
8030557c:	e0a00000 	adc	r0, r0, r0
80305580:	20433881 	subcs	r3, r3, r1, lsl #17
80305584:	e1530801 	cmp	r3, r1, lsl #16
80305588:	e0a00000 	adc	r0, r0, r0
8030558c:	20433801 	subcs	r3, r3, r1, lsl #16
80305590:	e1530781 	cmp	r3, r1, lsl #15
80305594:	e0a00000 	adc	r0, r0, r0
80305598:	20433781 	subcs	r3, r3, r1, lsl #15
8030559c:	e1530701 	cmp	r3, r1, lsl #14
803055a0:	e0a00000 	adc	r0, r0, r0
803055a4:	20433701 	subcs	r3, r3, r1, lsl #14
803055a8:	e1530681 	cmp	r3, r1, lsl #13
803055ac:	e0a00000 	adc	r0, r0, r0
803055b0:	20433681 	subcs	r3, r3, r1, lsl #13
803055b4:	e1530601 	cmp	r3, r1, lsl #12
803055b8:	e0a00000 	adc	r0, r0, r0
803055bc:	20433601 	subcs	r3, r3, r1, lsl #12
803055c0:	e1530581 	cmp	r3, r1, lsl #11
803055c4:	e0a00000 	adc	r0, r0, r0
803055c8:	20433581 	subcs	r3, r3, r1, lsl #11
803055cc:	e1530501 	cmp	r3, r1, lsl #10
803055d0:	e0a00000 	adc	r0, r0, r0
803055d4:	20433501 	subcs	r3, r3, r1, lsl #10
803055d8:	e1530481 	cmp	r3, r1, lsl #9
803055dc:	e0a00000 	adc	r0, r0, r0
803055e0:	20433481 	subcs	r3, r3, r1, lsl #9
803055e4:	e1530401 	cmp	r3, r1, lsl #8
803055e8:	e0a00000 	adc	r0, r0, r0
803055ec:	20433401 	subcs	r3, r3, r1, lsl #8
803055f0:	e1530381 	cmp	r3, r1, lsl #7
803055f4:	e0a00000 	adc	r0, r0, r0
803055f8:	20433381 	subcs	r3, r3, r1, lsl #7
803055fc:	e1530301 	cmp	r3, r1, lsl #6
80305600:	e0a00000 	adc	r0, r0, r0
80305604:	20433301 	subcs	r3, r3, r1, lsl #6
80305608:	e1530281 	cmp	r3, r1, lsl #5
8030560c:	e0a00000 	adc	r0, r0, r0
80305610:	20433281 	subcs	r3, r3, r1, lsl #5
80305614:	e1530201 	cmp	r3, r1, lsl #4
80305618:	e0a00000 	adc	r0, r0, r0
8030561c:	20433201 	subcs	r3, r3, r1, lsl #4
80305620:	e1530181 	cmp	r3, r1, lsl #3
80305624:	e0a00000 	adc	r0, r0, r0
80305628:	20433181 	subcs	r3, r3, r1, lsl #3
8030562c:	e1530101 	cmp	r3, r1, lsl #2
80305630:	e0a00000 	adc	r0, r0, r0
80305634:	20433101 	subcs	r3, r3, r1, lsl #2
80305638:	e1530081 	cmp	r3, r1, lsl #1
8030563c:	e0a00000 	adc	r0, r0, r0
80305640:	20433081 	subcs	r3, r3, r1, lsl #1
80305644:	e1530001 	cmp	r3, r1
80305648:	e0a00000 	adc	r0, r0, r0
8030564c:	20433001 	subcs	r3, r3, r1
80305650:	e35c0000 	cmp	ip, #0
80305654:	42600000 	rsbmi	r0, r0, #0
80305658:	e12fff1e 	bx	lr
8030565c:	e13c0000 	teq	ip, r0
80305660:	42600000 	rsbmi	r0, r0, #0
80305664:	e12fff1e 	bx	lr
80305668:	33a00000 	movcc	r0, #0
8030566c:	01a00fcc 	asreq	r0, ip, #31
80305670:	03800001 	orreq	r0, r0, #1
80305674:	e12fff1e 	bx	lr
80305678:	e16f2f11 	clz	r2, r1
8030567c:	e262201f 	rsb	r2, r2, #31
80305680:	e35c0000 	cmp	ip, #0
80305684:	e1a00233 	lsr	r0, r3, r2
80305688:	42600000 	rsbmi	r0, r0, #0
8030568c:	e12fff1e 	bx	lr
80305690:	e3500000 	cmp	r0, #0
80305694:	c3e00102 	mvngt	r0, #-2147483648	; 0x80000000
80305698:	b3a00102 	movlt	r0, #-2147483648	; 0x80000000
8030569c:	ea000007 	b	803056c0 <__aeabi_idiv0>

803056a0 <__aeabi_idivmod>:
803056a0:	e3510000 	cmp	r1, #0
803056a4:	0afffff9 	beq	80305690 <.divsi3_skip_div0_test+0x208>
803056a8:	e92d4003 	push	{r0, r1, lr}
803056ac:	ebffff75 	bl	80305488 <.divsi3_skip_div0_test>
803056b0:	e8bd4006 	pop	{r1, r2, lr}
803056b4:	e0030092 	mul	r3, r2, r0
803056b8:	e0411003 	sub	r1, r1, r3
803056bc:	e12fff1e 	bx	lr

803056c0 <__aeabi_idiv0>:
803056c0:	e92d4002 	push	{r1, lr}
803056c4:	e3a00008 	mov	r0, #8
803056c8:	ebfffee0 	bl	80305250 <raise>
803056cc:	e8bd8002 	pop	{r1, pc}

Disassembly of section .vectors:

803056e0 <_start>:
803056e0:	ea000016 	b	80305740 <reset>
803056e4:	e59ff014 	ldr	pc, [pc, #20]	; 80305700 <_undefined_instruction>
803056e8:	e59ff014 	ldr	pc, [pc, #20]	; 80305704 <_software_interrupt>
803056ec:	e59ff014 	ldr	pc, [pc, #20]	; 80305708 <_prefetch_abort>
803056f0:	e59ff014 	ldr	pc, [pc, #20]	; 8030570c <_data_abort>
803056f4:	e59ff014 	ldr	pc, [pc, #20]	; 80305710 <_not_used>
803056f8:	e59ff014 	ldr	pc, [pc, #20]	; 80305714 <_irq>
803056fc:	e59ff014 	ldr	pc, [pc, #20]	; 80305718 <_fiq>

80305700 <_undefined_instruction>:
80305700:	80305760 	.word	0x80305760

80305704 <_software_interrupt>:
80305704:	803057c0 	.word	0x803057c0

80305708 <_prefetch_abort>:
80305708:	80305820 	.word	0x80305820

8030570c <_data_abort>:
8030570c:	80305880 	.word	0x80305880

80305710 <_not_used>:
80305710:	803058e0 	.word	0x803058e0

80305714 <_irq>:
80305714:	80305940 	.word	0x80305940

80305718 <_fiq>:
80305718:	80305980 	.word	0x80305980
8030571c:	deadbeef 	.word	0xdeadbeef

80305720 <IRQ_STACK_START_IN>:
80305720:	0badc0de 	.word	0x0badc0de

80305724 <IRQ_STACK_START>:
80305724:	0badc0de 	.word	0x0badc0de

80305728 <FIQ_STACK_START>:
80305728:	0badc0de 	.word	0x0badc0de
8030572c:	e320f000 	nop	{0}
80305730:	e320f000 	nop	{0}
80305734:	e320f000 	nop	{0}
80305738:	e320f000 	nop	{0}
8030573c:	e320f000 	nop	{0}

80305740 <reset>:
80305740:	ebfffffe 	bl	80305740 <reset>
80305744:	e320f000 	nop	{0}
80305748:	e320f000 	nop	{0}
8030574c:	e320f000 	nop	{0}
80305750:	e320f000 	nop	{0}
80305754:	e320f000 	nop	{0}
80305758:	e320f000 	nop	{0}
8030575c:	e320f000 	nop	{0}

80305760 <undefined_instruction>:
80305760:	e51fd048 	ldr	sp, [pc, #-72]	; 80305720 <IRQ_STACK_START_IN>
80305764:	e58de000 	str	lr, [sp]
80305768:	e14fe000 	mrs	lr, SPSR
8030576c:	e58de004 	str	lr, [sp, #4]
80305770:	e3a0d013 	mov	sp, #19
80305774:	e169f00d 	msr	SPSR_fc, sp
80305778:	e1a0e00f 	mov	lr, pc
8030577c:	e1b0f00e 	movs	pc, lr
80305780:	e24dd048 	sub	sp, sp, #72	; 0x48
80305784:	e88d1fff 	stm	sp, {r0, r1, r2, r3, r4, r5, r6, r7, r8, r9, sl, fp, ip}
80305788:	e51f2070 	ldr	r2, [pc, #-112]	; 80305720 <IRQ_STACK_START_IN>
8030578c:	e892000c 	ldm	r2, {r2, r3}
80305790:	e28d0048 	add	r0, sp, #72	; 0x48
80305794:	e28d5034 	add	r5, sp, #52	; 0x34
80305798:	e1a0100e 	mov	r1, lr
8030579c:	e885000f 	stm	r5, {r0, r1, r2, r3}
803057a0:	e1a0000d 	mov	r0, sp
803057a4:	ebffeb06 	bl	803003c4 <do_undefined_instruction>
803057a8:	e320f000 	nop	{0}
803057ac:	e320f000 	nop	{0}
803057b0:	e320f000 	nop	{0}
803057b4:	e320f000 	nop	{0}
803057b8:	e320f000 	nop	{0}
803057bc:	e320f000 	nop	{0}

803057c0 <software_interrupt>:
803057c0:	e51fd0a8 	ldr	sp, [pc, #-168]	; 80305720 <IRQ_STACK_START_IN>
803057c4:	e58de000 	str	lr, [sp]
803057c8:	e14fe000 	mrs	lr, SPSR
803057cc:	e58de004 	str	lr, [sp, #4]
803057d0:	e3a0d013 	mov	sp, #19
803057d4:	e169f00d 	msr	SPSR_fc, sp
803057d8:	e1a0e00f 	mov	lr, pc
803057dc:	e1b0f00e 	movs	pc, lr
803057e0:	e24dd048 	sub	sp, sp, #72	; 0x48
803057e4:	e88d1fff 	stm	sp, {r0, r1, r2, r3, r4, r5, r6, r7, r8, r9, sl, fp, ip}
803057e8:	e51f20d0 	ldr	r2, [pc, #-208]	; 80305720 <IRQ_STACK_START_IN>
803057ec:	e892000c 	ldm	r2, {r2, r3}
803057f0:	e28d0048 	add	r0, sp, #72	; 0x48
803057f4:	e28d5034 	add	r5, sp, #52	; 0x34
803057f8:	e1a0100e 	mov	r1, lr
803057fc:	e885000f 	stm	r5, {r0, r1, r2, r3}
80305800:	e1a0000d 	mov	r0, sp
80305804:	ebffeafa 	bl	803003f4 <do_software_interrupt>
80305808:	e320f000 	nop	{0}
8030580c:	e320f000 	nop	{0}
80305810:	e320f000 	nop	{0}
80305814:	e320f000 	nop	{0}
80305818:	e320f000 	nop	{0}
8030581c:	e320f000 	nop	{0}

80305820 <prefetch_abort>:
80305820:	e51fd108 	ldr	sp, [pc, #-264]	; 80305720 <IRQ_STACK_START_IN>
80305824:	e58de000 	str	lr, [sp]
80305828:	e14fe000 	mrs	lr, SPSR
8030582c:	e58de004 	str	lr, [sp, #4]
80305830:	e3a0d013 	mov	sp, #19
80305834:	e169f00d 	msr	SPSR_fc, sp
80305838:	e1a0e00f 	mov	lr, pc
8030583c:	e1b0f00e 	movs	pc, lr
80305840:	e24dd048 	sub	sp, sp, #72	; 0x48
80305844:	e88d1fff 	stm	sp, {r0, r1, r2, r3, r4, r5, r6, r7, r8, r9, sl, fp, ip}
80305848:	e51f2130 	ldr	r2, [pc, #-304]	; 80305720 <IRQ_STACK_START_IN>
8030584c:	e892000c 	ldm	r2, {r2, r3}
80305850:	e28d0048 	add	r0, sp, #72	; 0x48
80305854:	e28d5034 	add	r5, sp, #52	; 0x34
80305858:	e1a0100e 	mov	r1, lr
8030585c:	e885000f 	stm	r5, {r0, r1, r2, r3}
80305860:	e1a0000d 	mov	r0, sp
80305864:	ebffeaee 	bl	80300424 <do_prefetch_abort>
80305868:	e320f000 	nop	{0}
8030586c:	e320f000 	nop	{0}
80305870:	e320f000 	nop	{0}
80305874:	e320f000 	nop	{0}
80305878:	e320f000 	nop	{0}
8030587c:	e320f000 	nop	{0}

80305880 <data_abort>:
80305880:	e51fd168 	ldr	sp, [pc, #-360]	; 80305720 <IRQ_STACK_START_IN>
80305884:	e58de000 	str	lr, [sp]
80305888:	e14fe000 	mrs	lr, SPSR
8030588c:	e58de004 	str	lr, [sp, #4]
80305890:	e3a0d013 	mov	sp, #19
80305894:	e169f00d 	msr	SPSR_fc, sp
80305898:	e1a0e00f 	mov	lr, pc
8030589c:	e1b0f00e 	movs	pc, lr
803058a0:	e24dd048 	sub	sp, sp, #72	; 0x48
803058a4:	e88d1fff 	stm	sp, {r0, r1, r2, r3, r4, r5, r6, r7, r8, r9, sl, fp, ip}
803058a8:	e51f2190 	ldr	r2, [pc, #-400]	; 80305720 <IRQ_STACK_START_IN>
803058ac:	e892000c 	ldm	r2, {r2, r3}
803058b0:	e28d0048 	add	r0, sp, #72	; 0x48
803058b4:	e28d5034 	add	r5, sp, #52	; 0x34
803058b8:	e1a0100e 	mov	r1, lr
803058bc:	e885000f 	stm	r5, {r0, r1, r2, r3}
803058c0:	e1a0000d 	mov	r0, sp
803058c4:	ebffeae2 	bl	80300454 <do_data_abort>
803058c8:	e320f000 	nop	{0}
803058cc:	e320f000 	nop	{0}
803058d0:	e320f000 	nop	{0}
803058d4:	e320f000 	nop	{0}
803058d8:	e320f000 	nop	{0}
803058dc:	e320f000 	nop	{0}

803058e0 <not_used>:
803058e0:	e51fd1c8 	ldr	sp, [pc, #-456]	; 80305720 <IRQ_STACK_START_IN>
803058e4:	e58de000 	str	lr, [sp]
803058e8:	e14fe000 	mrs	lr, SPSR
803058ec:	e58de004 	str	lr, [sp, #4]
803058f0:	e3a0d013 	mov	sp, #19
803058f4:	e169f00d 	msr	SPSR_fc, sp
803058f8:	e1a0e00f 	mov	lr, pc
803058fc:	e1b0f00e 	movs	pc, lr
80305900:	e24dd048 	sub	sp, sp, #72	; 0x48
80305904:	e88d1fff 	stm	sp, {r0, r1, r2, r3, r4, r5, r6, r7, r8, r9, sl, fp, ip}
80305908:	e51f21f0 	ldr	r2, [pc, #-496]	; 80305720 <IRQ_STACK_START_IN>
8030590c:	e892000c 	ldm	r2, {r2, r3}
80305910:	e28d0048 	add	r0, sp, #72	; 0x48
80305914:	e28d5034 	add	r5, sp, #52	; 0x34
80305918:	e1a0100e 	mov	r1, lr
8030591c:	e885000f 	stm	r5, {r0, r1, r2, r3}
80305920:	e1a0000d 	mov	r0, sp
80305924:	ebffead6 	bl	80300484 <do_not_used>
80305928:	e320f000 	nop	{0}
8030592c:	e320f000 	nop	{0}
80305930:	e320f000 	nop	{0}
80305934:	e320f000 	nop	{0}
80305938:	e320f000 	nop	{0}
8030593c:	e320f000 	nop	{0}

80305940 <irq>:
80305940:	e51fd224 	ldr	sp, [pc, #-548]	; 80305724 <IRQ_STACK_START>
80305944:	e24dd048 	sub	sp, sp, #72	; 0x48
80305948:	e88d1fff 	stm	sp, {r0, r1, r2, r3, r4, r5, r6, r7, r8, r9, sl, fp, ip}
8030594c:	e28d803c 	add	r8, sp, #60	; 0x3c
80305950:	e9486000 	stmdb	r8, {sp, lr}^
80305954:	e588e000 	str	lr, [r8]
80305958:	e14f6000 	mrs	r6, SPSR
8030595c:	e5886004 	str	r6, [r8, #4]
80305960:	e5880008 	str	r0, [r8, #8]
80305964:	e1a0000d 	mov	r0, sp
80305968:	ebffeadd 	bl	803004e4 <do_irq>
8030596c:	e8dd7fff 	ldm	sp, {r0, r1, r2, r3, r4, r5, r6, r7, r8, r9, sl, fp, ip, sp, lr}^
80305970:	e1a00000 	nop			; (mov r0, r0)
80305974:	e59de03c 	ldr	lr, [sp, #60]	; 0x3c
80305978:	e28dd048 	add	sp, sp, #72	; 0x48
8030597c:	e25ef004 	subs	pc, lr, #4

80305980 <fiq>:
80305980:	e51fd260 	ldr	sp, [pc, #-608]	; 80305728 <FIQ_STACK_START>
80305984:	e24dd048 	sub	sp, sp, #72	; 0x48
80305988:	e88d1fff 	stm	sp, {r0, r1, r2, r3, r4, r5, r6, r7, r8, r9, sl, fp, ip}
8030598c:	e28d803c 	add	r8, sp, #60	; 0x3c
80305990:	e9486000 	stmdb	r8, {sp, lr}^
80305994:	e588e000 	str	lr, [r8]
80305998:	e14f6000 	mrs	r6, SPSR
8030599c:	e5886004 	str	r6, [r8, #4]
803059a0:	e5880008 	str	r0, [r8, #8]
803059a4:	e1a0000d 	mov	r0, sp
803059a8:	ebffeac1 	bl	803004b4 <do_fiq>
803059ac:	e8dd7fff 	ldm	sp, {r0, r1, r2, r3, r4, r5, r6, r7, r8, r9, sl, fp, ip, sp, lr}^
803059b0:	e1a00000 	nop			; (mov r0, r0)
803059b4:	e59de03c 	ldr	lr, [sp, #60]	; 0x3c
803059b8:	e28dd048 	add	sp, sp, #72	; 0x48
803059bc:	e25ef004 	subs	pc, lr, #4
